(dp1
S'DRB1_1129'
p2
S'ESSFDYFDFDRATYHVGFT'
p3
sS'DRB1_0703'
p4
S'WGYFELYVIDRQTVHVGFT'
p5
sS'DRB1_0701'
p6
S'WGYFELYVIDRQTVHVGFT'
p7
sS'DRB1_0706'
p8
S'WGYFELYAIDRQTVHVGFT'
p9
sS'DRB1_0707'
p10
S'WGYFELYVIDRQTVHVGFT'
p11
sS'DRB1_0704'
p12
S'WGYFELYVIDRQNYHVGFT'
p13
sS'DRB1_0705'
p14
S'WGYFELYVIDRQTVHVGFT'
p15
sS'DRB1_1121'
p16
S'ESSFDYFDIDEATYHAVFT'
p17
sS'DRB1_1120'
p18
S'ESSFDYFDIDEATYHVGFT'
p19
sS'DRB1_0708'
p20
S'WGYFELYVIDRQTVHVGFT'
p21
sS'DRB1_0709'
p22
S'WGYFEFYVIDRQTVHVGFT'
p23
sS'DRB1_1125'
p24
S'ESSFDYFDFDRLTYHVVFT'
p25
sS'DRB1_1124'
p26
S'ESSFDYFDFDRATYHVGFT'
p27
sS'DRB1_1127'
p28
S'ESSFDYFDFDRANYHVGFT'
p29
sS'HLA-DRB1*13:02'
p30
S'ESSFDYFDIDEATYHVGFT'
p31
sS'HLA-DRB1*04:01'
p32
S'EVHFDYYDLQKATYHVGFT'
p33
sS'DRB1_1498'
p34
S'ESSFEYYDLDRLNYHVGFT'
p35
sS'HLA-DRB1*04:03'
p36
S'EVHFDYYDLQRETYHVVFT'
p37
sS'HLA-DRB1*04:02'
p38
S'EVHFDYYDIDEATYHVVFT'
p39
sS'HLA-DRB1*04:05'
p40
S'EVHFDYYSLQRATYHVGFT'
p41
sS'HLA-DRB1*04:04'
p42
S'EVHFDYYDLQRATYHVVFT'
p43
sS'HLA-DRB1*04:07'
p44
S'EVHFDYYDLQRETYHVGFT'
p45
sS'HLA-DRB1*04:06'
p46
S'EVHFDYYDLQRETYHVVFT'
p47
sS'HLA-DRB1*04:09'
p48
S'EVHFDYYSLQKATYHVGFT'
p49
sS'HLA-DRB1*04:08'
p50
S'EVHFDYYDLQRATYHVGFT'
p51
sS'DRB1_1493'
p52
S'ESGFDYYALRRENYHVGFT'
p53
sS'DRB1_1495'
p54
S'ESSYDYFDLRRETYHVVFT'
p55
sS'DRB1_1494'
p56
S'ESSFEYYDLQRATYHVGFT'
p57
sS'DRB1_1497'
p58
S'ESSFDYYALRRETYHVVFT'
p59
sS'HLA-DRB1*13:08'
p60
S'ESSFDYYDIDEATYHVVFT'
p61
sS'DRB1_0838'
p62
S'ESGFDYYSIDRLTYHVGFT'
p63
sS'DRB1_0839'
p64
S'ESGFDYYSFDRLTYHVGFT'
p65
sS'DRB1_0834'
p66
S'ESGFDYYVIDRLTYHVGFT'
p67
sS'DRB1_0835'
p68
S'ESGFDYYSIDRLTYHVGFT'
p69
sS'DRB1_0836'
p70
S'ESGFDYYSIDRLTYHVGFT'
p71
sS'DRB1_0837'
p72
S'ESGFDYFSIDRLTYHVGFT'
p73
sS'DRB1_0830'
p74
S'ESGFDYYDIDRLTYHVGFT'
p75
sS'DRB1_0831'
p76
S'ESGFDYYDFDRATYHVVFT'
p77
sS'DRB1_0832'
p78
S'ESGLEHYSIDRLTYHVGFT'
p79
sS'DRB1_0833'
p80
S'ESGFDYYSIDRLTYHVGFT'
p81
sS'HLA-DRB1*13:96'
p82
S'ESSFDYFDIDEANYHVGFT'
p83
sS'HLA-DRB1*13:05'
p84
S'ESSFDYFDFDRATYHVGFT'
p85
sS'DRB1_1394'
p86
S'ESSFDYYSIDKANYHVVFT'
p87
sS'HLA-DRB1*13:95'
p88
S'ESSFDYYSIDKATYHVGFT'
p89
sS'DRB1_1158'
p90
S'ESSFDYFDFDRATYHVVFT'
p91
sS'DRB1_1159'
p92
S'ESSYDYFDFDEATYHVVFT'
p93
sS'HLA-DRB1*13:90'
p94
S'ESSFDYYSIDKATYHVGFT'
p95
sS'HLA-DRB1*13:04'
p96
S'ESSFDYFSIDEATYHVVFT'
p97
sS'DRB1_1154'
p98
S'ESSFDYFDFDRETYHVVFT'
p99
sS'DRB1_1155'
p100
S'ESSFDYFDFDELTYHVVFT'
p101
sS'DRB1_1156'
p102
S'ESSFDYYDFDRATYHVVFT'
p103
sS'HLA-DRB1*04:91'
p104
S'EVHFDYYSLQRETYHVVFT'
p105
sS'DRB1_1150'
p106
S'ESSFDYYDFDRATYHVVFT'
p107
sS'DRB1_1151'
p108
S'ESSFDYFDFDRATYHVGFT'
p109
sS'DRB1_1152'
p110
S'ESSFDYYDLRRETYHVVFT'
p111
sS'DRB1_1153'
p112
S'ESSFDYFDFQKQTYHVGFT'
p113
sS'HLA-DRB1*13:06'
p114
S'ESSFDYFDIDRATYHVVFT'
p115
sS'HLA-DRB3*01:13'
p116
S'ERSYDYYVLQKRNYHVGFT'
p117
sS'HLA-DRB1*13:01'
p118
S'ESSFDYFDIDEATYHVVFT'
p119
sS'HLA-DRB1*13:19'
p120
S'ESSFEYYDIDEATYHVVFT'
p121
sS'DRB1_1395'
p122
g89
sS'DRB4_0103'
p123
S'EACNIYYDLRRETYYVVFT'
p124
sS'DRB1_1526'
p125
S'WPRFDYFDIQAATYHVGFT'
p126
sS'HLA-DRB1*13:03'
p127
S'ESSFDYYSIDKATYHVGFT'
p128
sS'DRB4_0101'
p129
S'EACNIYYDLRRETYYVVFT'
p130
sS'DRB3_0205'
p131
S'ELSFEYYDLQKQNYHVGFT'
p132
sS'HLA-DRB1*11:90'
p133
S'ESSFDYFDFDRATYHVGFT'
p134
sS'HLA-DRB1*11:91'
p135
S'ESSFDYFDFDRATYHIGFT'
p136
sS'HLA-DRB1*11:92'
p137
S'ESSLECFDFDRATYHVVFT'
p138
sS'HLA-DRB1*11:93'
p139
S'ESSFDYFDFDKATYHVGFT'
p140
sS'HLA-DRB1*11:94'
p141
S'ESSFDYFDFDRATYHVGFT'
p142
sS'HLA-DRB1*11:95'
p143
S'ESSFDYFDFDRATYHVGFT'
p144
sS'HLA-DRB1*11:96'
p145
S'ESSFDYFDFDRATYHVGFT'
p146
sS'HLA-DRB1*14:54'
p147
S'ESSFDYYALRRETYHVVFT'
p148
sS'HLA-DRB1*14:03'
p149
S'ESSFEYYDLDRLTYHVGFT'
p150
sS'HLA-DRB1*14:59'
p151
S'ESSFDYYDLRRETYHVVFT'
p152
sS'HLA-DRB1*14:58'
p153
S'ESSFDYYALRRETYHVVFT'
p154
sS'HLA-DRB1*14:60'
p155
S'ESSFDYYALRRETYHVVFT'
p156
sS'DRB1_1521'
p157
S'WPRFDYFDIDRLTYHVVFT'
p158
sS'HLA-DRB4*01:06'
p159
S'EACNIYYDLRRETYYVVFT'
p160
sS'DRB1_0339'
p161
S'ESSYDYFDLQKRNYHVVFT'
p162
sS'DRB1_0338'
p163
S'ESSFEYYVLQKRNYHVGFT'
p164
sS'HLA-DRB4*01:03'
p165
g124
sS'DRB1_1472'
p166
S'ESSFDYFDLRRETYHVVFT'
p167
sS'HLA-DRB4*01:01'
p168
g130
sS'DRB1_0333'
p169
S'ESSYDYFDLQKRNYHVVFT'
p170
sS'DRB1_0332'
p171
S'ESSYDYFDLQKRNYHVVFT'
p172
sS'DRB1_0331'
p173
S'ESSYDYYDLQKRNYHVVFT'
p174
sS'DRB1_0330'
p175
S'ESSYDYFDLQKRNYHVVFT'
p176
sS'DRB1_0337'
p177
S'ESSYDYFDLQKRNYHVVFT'
p178
sS'DRB1_0336'
p179
S'ESSYDYFDLQKRNYHVVFT'
p180
sS'DRB1_0335'
p181
S'ESSFDYYDLQKQNYHVGFT'
p182
sS'DRB1_0334'
p183
S'ESSYDYFDLQKRNYHVVFT'
p184
sS'HLA-DRB1*13:52'
p185
S'ESSFDYFDIDEATYHVVFT'
p186
sS'HLA-DRB1*13:53'
p187
S'ESSFEYYDIDEATYHVVFT'
p188
sS'HLA-DRB1*13:50'
p189
S'ESSFDYFDFDRATYHVGFT'
p190
sS'DRB1_0445'
p191
S'EVHFDYYSLQRATYHVGFT'
p192
sS'DRB1_0444'
p193
S'EVHFDYYDLQRANYHVVFT'
p194
sS'DRB1_0447'
p195
S'EVHFDYYDFDRATYHVGFT'
p196
sS'DRB1_0446'
p197
S'EVHFDYYDLQRETYHVVFT'
p198
sS'DRB1_0441'
p199
S'EVHFDYYDLQRETYHVVFT'
p200
sS'DRB1_0440'
p201
S'EVHFDYYDLQRATYHVVFT'
p202
sS'DRB1_0443'
p203
S'EVHFDYFDLQRATYHVGFT'
p204
sS'DRB1_0442'
p205
S'EVHFDYFDLQRATYHVVFT'
p206
sS'HLA-DRB1*13:56'
p207
S'ESSFDYFDLDRATYHVGFT'
p208
sS'DRB1_0449'
p209
S'EIHFDYYDLQRETYHVVFT'
p210
sS'DRB1_0448'
p211
S'EVHFDYYSLQRATYHVGFT'
p212
sS'DRB3_0217'
p213
S'ELSFEHYDFQKQNYHVGFT'
p214
sS'HLA-DRB1*13:57'
p215
S'ESSFEYFDIDEATYHVVFT'
p216
sS'HLA-DRB1*13:68'
p217
S'ESSFDYFDIDEATYHVVFT'
p218
sS'HLA-DRB1*13:54'
p219
S'ESSFDYFVFDEATYHVVFT'
p220
sS'HLA-DRB1*14:76'
p221
S'ESGFDYYALQKRNYHVVFT'
p222
sS'HLA-DR17'
p223
S'ESSYDYFDLQKRNYHVVFT'
p224
sS'HLA-DRB1*13:55'
p225
S'ESSFDYYSFDRLTYHVGFT'
p226
sS'HLA-DRB5*02:03'
p227
S'QDYFHGYDIQAATYHVGFT'
p228
sS'DRB1_0713'
p229
S'WGYFELYVIDRQTVHVGFT'
p230
sS'HLA-DRB1*11:06'
p231
S'ESSFDYFDFDRATYHAVFT'
p232
sS'HLA-DRB1*11:05'
p233
S'ESGFDYFDFDRATYHVGFT'
p234
sS'HLA-DRB1*11:04'
p235
S'ESSFDYFDFDRATYHVVFT'
p236
sS'HLA-DRB1*11:03'
p237
S'ESSFDYFDFDEATYHVVFT'
p238
sS'HLA-DRB1*11:02'
p239
S'ESSFDYFDIDEATYHVVFT'
p240
sS'HLA-DRB1*11:01'
p241
S'ESSFDYFDFDRATYHVGFT'
p242
sS'HLA-DRB1*14:21'
p243
S'ESSFDYFDLQKATYHVVFT'
p244
sS'DRB1_1316'
p245
S'ESSFDYFDIDEATYHVDFT'
p246
sS'DRB1_1496'
p247
S'ESSFDYYDLRRETYHVVFT'
p248
sS'DRB1_1501'
p249
S'WPRFDYFDIQAATYHVVFT'
p250
sS'HLA-DRB1*11:09'
p251
S'ESSFDYFDFDRATYHVGFT'
p252
sS'HLA-DRB1*11:08'
p253
S'ESSFDYFDLDRATYHVGFT'
p254
sS'DRB1_1341'
p255
S'ESSYDYFDIDEATYHVGFT'
p256
sS'DRB1_1343'
p257
S'ESSFDYFALDEATYHVVFT'
p258
sS'DRB1_1342'
p259
S'ESSFDYFDFDRATYHVVFT'
p260
sS'DRB1_1344'
p261
S'ESSFDYFDLQRATYHVVFT'
p262
sS'DRB1_1347'
p263
S'ESSFDYYDFDRLTYHVGFT'
p264
sS'DRB1_1346'
p265
S'ESSFDYFVFDRATYHVGFT'
p266
sS'DRB1_1349'
p267
S'ESSFDYYSFDRATYHVGFT'
p268
sS'DRB1_1348'
p269
S'ESSFDYYSIDEATYHVVFT'
p270
sS'DRB3_0221'
p271
S'ELSFEHYVLQKQNYHVGFT'
p272
sS'DRB3_0220'
p273
S'ELSFEHYDLQKQNYHVGFT'
p274
sS'DRB4_0104'
p275
S'EACNIYYDLRRENYYVVFT'
p276
sS'DRB3_0225'
p277
S'ELSFEHYDLQKQNYHVGFT'
p278
sS'HLA-DRB1*14:85'
p279
S'ESSFEYYSLDRLTYHVGFT'
p280
sS'HLA-DRB1*01:32'
p281
S'WLFLECYDLQRATYHVGFT'
p282
sS'HLA-DRB1*01:31'
p283
S'WLFLECYDLQRATYHVGFT'
p284
sS'HLA-DRB1*01:30'
p285
S'WLFLECYDLQRATYHVGFT'
p286
sS'HLA-DRB1*08:19'
p287
S'ESGFDYYIIDRLTYHVGFT'
p288
sS'DRB1_1317'
p289
S'ESGFDYFDIDEATYHVVFT'
p290
sS'HLA-DRB1*14:07'
p291
S'ESSFDYYALRRETYHVGFT'
p292
sS'HLA-DRB1*03:19'
p293
S'ESSYDYFDIQKRNYHVVFT'
p294
sS'HLA-DRB1*03:18'
p295
S'ESSYDYFDLQKRNYHVVFT'
p296
sS'HLA-DRB1*14:29'
p297
S'ESSFEYYDLQRATYHAVFT'
p298
sS'HLA-DRB1*16:08'
p299
S'WPRFDYYDFDRATYHVGFT'
p300
sS'HLA-DRB1*16:09'
p301
S'WPRFDYFDFDRATYHVGFT'
p302
sS'HLA-DRB1*03:13'
p303
S'ESSYDYFDLQKRNYHVVFT'
p304
sS'HLA-DRB1*08:40'
p305
S'ESGFDYYSIDKATYHVGFT'
p306
sS'HLA-DRB1*03:11'
p307
S'ESSYDYFDLQKQNYHVVFT'
p308
sS'HLA-DRB1*03:10'
p309
S'ESSYDYFALQKRNYHVVFT'
p310
sS'HLA-DRB1*03:17'
p311
S'ESSFDYYDLQKQNYHVGFT'
p312
sS'HLA-DRB1*16:03'
p313
S'WPRFDYYDFDRATYHVGFT'
p314
sS'HLA-DRB1*03:15'
p315
S'ESSYDYFDLQKRTYHVVFT'
p316
sS'HLA-DRB1*03:14'
p317
S'ESSYDYFDLQKRTYHVGFT'
p318
sS'DRB1_1334'
p319
S'ESSFDYFDIDEATYHVGFT'
p320
sS'DRB1_1335'
p321
S'ESSFDYFDIDEATYHVVFT'
p322
sS'DRB1_1336'
p323
S'ESSFDYYDIDEATYHVGFT'
p324
sS'DRB1_1337'
p325
S'ESSFDYYDIDKATYHVGFT'
p326
sS'DRB1_1330'
p327
S'ESSFDYFSIDRATYHVGFT'
p328
sS'DRB1_1331'
p329
S'ESSFDYFVIDEATYHVGFT'
p330
sS'DRB1_1332'
p331
S'ESSFDYYSIDEATYHVVFT'
p332
sS'DRB1_1333'
p333
S'ESSFDYYSIDKANYHVGFT'
p334
sS'DRB1_1338'
p335
S'ESSFDYYSIDEATYHVGFT'
p336
sS'DRB1_1339'
p337
S'ESSFDYFDIDEATYHVGFT'
p338
sS'DRB1_0840'
p339
g306
sS'DRB1_1164'
p340
S'ESSFDYFDLDRLTYHVGFT'
p341
sS'DRB1_1167'
p342
S'ESGFDYFDFDRLTYHVVFT'
p343
sS'DRB1_1166'
p344
S'ESSFDYFDFDRATYHVGFT'
p345
sS'DRB1_1161'
p346
S'ESSFDYFDFDRATYHVGFT'
p347
sS'DRB1_1160'
p348
S'ESSFDYFDFDRATYHVVFT'
p349
sS'DRB1_1163'
p350
S'ESSFDYFDFDEATYHVVFT'
p351
sS'DRB1_1162'
p352
S'ESSFDYFDFDRATYHVGFT'
p353
sS'HLA-DRB1*13:49'
p354
g268
sS'HLA-DRB1*13:48'
p355
g270
sS'DRB1_1516'
p356
S'WPRFDYFDIQAATYHVVFT'
p357
sS'DRB1_1169'
p358
S'ESSFDYFDFQAATYHVGFT'
p359
sS'DRB1_1168'
p360
S'ESSFDYFDLDEATYHVGFT'
p361
sS'DRB1_1512'
p362
S'WPRFDYFSIQAATYHVVFT'
p363
sS'DRB1_1513'
p364
S'WPRFDYFDIQAATYHVVFT'
p365
sS'HLA-DRB5*01:05'
p366
S'QDYFHDYDFDRATYHVGFT'
p367
sS'HLA-DRB1*13:51'
p368
S'ESSFDYFDIDEATYHVVFT'
p369
sS'HLA-DR7'
p370
g7
sS'HLA-DRB1*14:09'
p371
S'ESSFDYYDLQRATYHVGFT'
p372
sS'DRB1_13101'
p373
S'ESSFDSYSIDKATYHVGFT'
p374
sS'DRB1_13100'
p375
S'ESSFDYFVFDRATYHVGFT'
p376
sS'HLA-DRB1*13:97'
p377
S'ESSFDYFDIDEATYHVGFT'
p378
sS'DRB1_1190'
p379
g134
sS'DRB1_1191'
p380
g136
sS'DRB1_1192'
p381
g138
sS'DRB1_1193'
p382
g140
sS'DRB1_1194'
p383
g142
sS'DRB1_1195'
p384
g144
sS'DRB1_1196'
p385
g146
sS'DRB1_0113'
p386
S'WLFFELYDLQRATYHVGFT'
p387
sS'DRB1_0112'
p388
S'WLFLECYDLQRATYHVGFT'
p389
sS'DRB1_0111'
p390
S'WLFLECYDLQRANYHVGFT'
p391
sS'DRB1_0110'
p392
S'WLFLECYDLQKATYHVGFT'
p393
sS'DRB1_0117'
p394
S'WLFLECYDLQRETYHVGFT'
p395
sS'DRB1_0116'
p396
S'WLFLECYDLQKRNYHVGFT'
p397
sS'DRB1_0115'
p398
S'WLFLECYDIQAATYHVGFT'
p399
sS'DRB1_0114'
p400
S'WLFLECYALQRATYHVGFT'
p401
sS'DRB1_1420'
p402
S'ESSFEYYDLQRATYHVVFT'
p403
sS'HLA-DRB1*13:92'
p404
S'ESSFDYFDIDEATYHVVFT'
p405
sS'DRB1_0119'
p406
S'WLFLECYDLQRATYHVGFT'
p407
sS'DRB1_0118'
p408
S'WLFLECFDLQRATYHVGFT'
p409
sS'DRB1_1424'
p410
S'ESSFEYYDIQAATYHVGFT'
p411
sS'DRB1_1425'
p412
S'ESSFDYYAFDRATYHVGFT'
p413
sS'DRB1_1426'
p414
S'ESSFDYYALRRETYHVVFT'
p415
sS'HLA-DRB1*13:93'
p416
S'ESSFDYFSIDEATYHVVFT'
p417
sS'HLA-DRB1*14:95'
p418
g55
sS'HLA-DRB1*14:24'
p419
g411
sS'HLA-DRB1*13:91'
p420
S'ESSFDYFDIDEATYHVVFT'
p421
sS'HLA-DRB1*04:78'
p422
S'EVHFDYYDLRRETYHVVFT'
p423
sS'HLA-DRB1*04:79'
p424
S'EVHFDYHDLQRATYHVVFT'
p425
sS'DRB1_1602'
p426
S'WPRFDYYDLDRATYHVGFT'
p427
sS'DRB1_1603'
p428
g314
sS'DRB1_1604'
p429
S'WPRFDYYDFDRLTYHVGFT'
p430
sS'DRB1_1605'
p431
S'WPRFDYYDIDRATYHVGFT'
p432
sS'DRB5_0205'
p433
S'QDYFHGYDLQRATYHAVFT'
p434
sS'DRB1_1607'
p435
S'WPRFDYYDIDRATYHVGFT'
p436
sS'HLA-DRB1*04:70'
p437
S'EVHFDYYDLQRATYYVVFT'
p438
sS'HLA-DRB1*04:71'
p439
S'EVHFDYYDLQRETYHVVFT'
p440
sS'HLA-DRB1*04:72'
p441
S'EVHFDYYDLQKANYHVGFT'
p442
sS'HLA-DRB1*04:73'
p443
S'EVHFDYYDIQAATYHVVFT'
p444
sS'HLA-DRB1*04:74'
p445
S'EVHFDYYDLQRENYHVGFT'
p446
sS'HLA-DRB1*04:75'
p447
S'EVHFDYYDLQTATYHVGFT'
p448
sS'HLA-DRB1*04:76'
p449
S'EVHFDYYDLQKATYHVGFT'
p450
sS'HLA-DRB1*04:77'
p451
S'EVHFDYYSLQRATYHVGFT'
p452
sS'HLA-DRB1*12:19'
p453
S'ESGLEHFVFDRATYHVVFT'
p454
sS'DRB1_1157'
p455
S'ESSFDYFDLDRATYHAVFT'
p456
sS'HLA-DRB1*13:32'
p457
g332
sS'DRB1_0805'
p458
S'ESGFDYYSFDRATYHVGFT'
p459
sS'DRB1_0804'
p460
S'ESGFDYYDFDRLTYHVVFT'
p461
sS'DRB1_0807'
p462
S'ESGFDYYVFDRLTYHVGFT'
p463
sS'DRB1_0806'
p464
S'ESGFDYYSFDRLTYHVVFT'
p465
sS'DRB1_0801'
p466
S'ESGFDYYSFDRLTYHVGFT'
p467
sS'HLA-DRB1*13:98'
p468
S'ESSFDYFDIDEATYHVMFT'
p469
sS'DRB1_0803'
p470
S'ESGFDYYSIDRLTYHVGFT'
p471
sS'DRB1_0802'
p472
S'ESGFDYYDFDRLTYHVGFT'
p473
sS'DRB1_1509'
p474
S'WPRFDYFDIQAATYHVVFT'
p475
sS'HLA-DRB1*13:99'
p476
S'ESSFDYFDIDEATYHVGFT'
p477
sS'DRB1_0809'
p478
S'ESGFDYYDFDRLTYHVGFT'
p479
sS'DRB1_0808'
p480
S'ESGFDYYAFDRLTYHVGFT'
p481
sS'DRB1_1528'
p482
S'WPKFDYFDIQAATYHVVFT'
p483
sS'DRB1_0480'
p484
S'EVHFDYYSFQRATYHVGFT'
p485
sS'DRB1_0483'
p486
S'EVHFDYYSLQRATYHVGFT'
p487
sS'DRB1_0482'
p488
S'EVHFDYYVIDRATYHVGFT'
p489
sS'DRB1_0485'
p490
S'EVHFDYYDLQRETYHVVFT'
p491
sS'DRB1_0484'
p492
S'EVHFDYYSLQRATYHVGFT'
p493
sS'DRB1_0487'
p494
S'EVHFDYYSLQRATYYVGFT'
p495
sS'DRB1_0486'
p496
S'EVHFDYYSIDRLTYHVGFT'
p497
sS'DRB1_0489'
p498
S'EVHFDYYSLQRATYHVGFT'
p499
sS'DRB1_0488'
p500
S'EVHFDYYDIQRETYHVVFT'
p501
sS'HLA-DRB3*02:02'
p502
S'ELSFEHYDLQKQNYHVGFT'
p503
sS'HLA-DRB3*02:05'
p504
g132
sS'HLA-DRB3*02:04'
p505
S'ELSFEHYDLQKRNYHVVFT'
p506
sS'HLA-DRB3*02:01'
p507
S'ELSFEHYDLQKQNYHVVFT'
p508
sS'DRB1_1508'
p509
S'WPRFDYFDIQAATYHVGFT'
p510
sS'DRB1_1458'
p511
g154
sS'DRB3_0301'
p512
S'ELSFEYYVLQKQNYHVVFT'
p513
sS'HLA-DRB3*02:09'
p514
S'ELSFEHYVLQKQNYHVGFT'
p515
sS'DRB4_0108'
p516
S'EACNIYYDLRRETYYVVFT'
p517
sS'HLA-DRB1*14:35'
p518
S'ESSFDYFALRRETYHVVFT'
p519
sS'HLA-DRB1*11:49'
p520
S'ESSFDYFDFDRATYHVGFT'
p521
sS'HLA-DRB1*11:48'
p522
S'ESSFDYYDIDEATYHVVFT'
p523
sS'DRB5_0113'
p524
S'QDYFHDYDFDRATYHVGFT'
p525
sS'HLA-DRB3*01:14'
p526
S'ESSYDYYVLQKRNYHVGFT'
p527
sS'DRB5_0111'
p528
S'QDYFHDYDIQAATYHVGFT'
p529
sS'HLA-DRB1*14:34'
p530
S'ESSFDYYDLRRATYHVVFT'
p531
sS'HLA-DRB1*11:43'
p532
S'ESSFDYFDFDRATYHVVFT'
p533
sS'HLA-DRB1*11:42'
p534
S'ESSFDYFDLDRATYHVVFT'
p535
sS'HLA-DRB1*11:41'
p536
S'ESSFDYYDFDEATYHVVFT'
p537
sS'HLA-DRB1*14:61'
p538
S'ESGFDYYALRRETYHVVFT'
p539
sS'HLA-DRB1*11:47'
p540
S'ESSFDYFDFDRATYHAVFT'
p541
sS'HLA-DRB1*11:46'
p542
S'ESSFDYFDFDRATYHVVFT'
p543
sS'HLA-DRB1*11:45'
p544
S'ESSFDYFDIDRLTYHVGFT'
p545
sS'HLA-DRB1*11:44'
p546
S'ESSFDYFDFDRATYHVVFT'
p547
sS'HLA-DRB1*14:36'
p548
S'ESSFDYYDLRRETYHVGFT'
p549
sS'HLA-DRB1*15:18'
p550
S'WPRFDYFDIEAATYHVVFT'
p551
sS'HLA-DRB1*15:19'
p552
S'WPRFDYFDIQAATYHVGFT'
p553
sS'HLA-DRB1*14:41'
p554
S'ESSFEYYDLQRATYHVGFT'
p555
sS'HLA-DRB1*15:14'
p556
S'WPRFDYFDIQAATYHVGFT'
p557
sS'HLA-DRB1*14:31'
p558
S'ESGFDYYALRRATYHVVFT'
p559
sS'HLA-DRB1*15:16'
p560
g357
sS'HLA-DRB1*13:07'
p561
S'ESSFDYYDFDRATYHVGFT'
p562
sS'HLA-DRB1*15:10'
p563
S'WPRFDYFDIDEATYHVVFT'
p564
sS'HLA-DRB1*15:11'
p565
S'WPRFDYYDIQAATYHVGFT'
p566
sS'HLA-DRB1*15:12'
p567
g363
sS'HLA-DRB1*14:30'
p568
S'ESSFDYFDLQRATYHVGFT'
p569
sS'DRB3_0108'
p570
S'ERSYDYYVLQKRNYHVGFT'
p571
sS'HLA-DRB5*02:02'
p572
S'QDYFHGYDIQAATYHAVFT'
p573
sS'DRB1_1181'
p574
S'ESSFDYFDFDRATYQVGFT'
p575
sS'HLA-DRB1*11:75'
p576
S'ESSFDYFDFDRATYHVGFT'
p577
sS'HLA-DRB1*14:68'
p578
S'ESGFDYYALRRETYHVGFT'
p579
sS'DRB3_0303'
p580
S'ELSFEYYVLQKRNYHVGFT'
p581
sS'HLA-DR3'
p582
g224
sS'HLA-DR2'
p583
g250
sS'DRB1_0418'
p584
S'EVHFDYYDIDRLTYHVVFT'
p585
sS'DRB1_0419'
p586
S'EVHFDYYDLQRATYHVGFT'
p587
sS'HLA-DRB1*12:20'
p588
S'ESCLEHFVFDRATYHAVFT'
p589
sS'HLA-DRB1*12:21'
p590
S'ESGLEHYVFDRATYHAVFT'
p591
sS'HLA-DRB1*12:22'
p592
S'ESGLEHFVIDRANYHVGFT'
p593
sS'HLA-DRB1*12:23'
p594
S'ESGLEHFVFDRATYHAVFT'
p595
sS'DRB1_0412'
p596
S'EVHFDYYSIDRLTYHVVFT'
p597
sS'DRB1_0413'
p598
S'EVHFDYYDLQKATYHVVFT'
p599
sS'DRB1_0410'
p600
S'EVHFDYYSLQRATYHVVFT'
p601
sS'DRB1_0411'
p602
S'EVHFDYYSLQRETYHVVFT'
p603
sS'DRB1_0416'
p604
S'EVHFDYYDLQKATYHVGFT'
p605
sS'DRB1_0417'
p606
S'EVHFDYYSLQRETYHVGFT'
p607
sS'DRB1_0414'
p608
S'EVHFDYYDIDEATYHVGFT'
p609
sS'DRB1_0415'
p610
S'EVHFDYYDFDRATYHVVFT'
p611
sS'DRB3_0109'
p612
S'ERSFEHYVLQKRNYHVGFT'
p613
sS'DRB3_0204'
p614
g506
sS'HLA-DRB1*14:22'
p615
S'ESSFDYYAFDRATYHVGFT'
p616
sS'HLA-DRB4*01:08'
p617
g517
sS'HLA-DRB1*10:01'
p618
S'EVFLERYDLRRATYHVGFT'
p619
sS'HLA-DRB1*10:02'
p620
S'EVFLERYDLRRATYHVVFT'
p621
sS'HLA-DRB1*10:03'
p622
S'EVFLERYDLRRATYHVGFT'
p623
sS'HLA-DRB1*07:01'
p624
g7
sS'HLA-DRB1*07:03'
p625
g5
sS'HLA-DRB1*07:04'
p626
g13
sS'HLA-DRB1*07:05'
p627
g15
sS'HLA-DRB1*07:06'
p628
g9
sS'HLA-DRB1*07:07'
p629
g11
sS'HLA-DRB1*07:08'
p630
g21
sS'HLA-DRB1*07:09'
p631
g23
sS'HLA-DRB1*11:34'
p632
S'ESSFDYFDLQRATYHVVFT'
p633
sS'HLA-DRB1*11:35'
p634
S'ESSFDYFDFDRATYHVVFT'
p635
sS'HLA-DRB1*11:32'
p636
S'ESSFDYFDFDRVTYHVGFT'
p637
sS'HLA-DRB1*11:33'
p638
S'ESSFDYFDFDRATYHVGFT'
p639
sS'HLA-DRB1*11:30'
p640
S'ELSFDYFDFDRATYHVGFT'
p641
sS'HLA-DRB1*11:31'
p642
S'ESSFDYFDIDRATYHVGFT'
p643
sS'DRB1_1411'
p644
S'ESGFDYYDLRRETYHVVFT'
p645
sS'DRB1_1410'
p646
S'EVHFDYYALRRETYHVVFT'
p647
sS'DRB1_1413'
p648
S'ESSFEYYSLQRATYHVGFT'
p649
sS'DRB1_1412'
p650
S'ESSFEYYDLDRLTYHVVFT'
p651
sS'DRB1_1002'
p652
g621
sS'DRB1_1003'
p653
g623
sS'DRB1_1417'
p654
S'ESSFDYFDLQRATYHVVFT'
p655
sS'DRB1_1001'
p656
g619
sS'DRB1_1419'
p657
S'ESSFEYYDLQKATYHVGFT'
p658
sS'DRB1_1418'
p659
S'ESSFEYYDLRRETYHVVFT'
p660
sS'DRB5_0202'
p661
g573
sS'HLA-DRB1*15:23'
p662
S'WPRFDHFDLQAATYHVVFT'
p663
sS'HLA-DRB1*14:67'
p664
S'ESSFEYYDIDRLTYHVGFT'
p665
sS'DRB1_1396'
p666
g83
sS'DRB1_1397'
p667
g378
sS'HLA-DRB1*01:08'
p668
S'WLFLECYDLQRATYHVGFT'
p669
sS'HLA-DRB1*01:09'
p670
S'WLFLECYDLQAATYHVGFT'
p671
sS'DRB1_1392'
p672
g405
sS'DRB1_1393'
p673
g417
sS'DRB1_1390'
p674
g95
sS'DRB1_1391'
p675
g421
sS'HLA-DRB1*01:02'
p676
S'WLFLECYDLQRATYHAVFT'
p677
sS'HLA-DRB1*01:03'
p678
S'WLFLECYDIDEATYHVGFT'
p679
sS'HLA-DRB1*01:01'
p680
S'WLFLECYDLQRATYHVGFT'
p681
sS'HLA-DRB1*01:06'
p682
S'WLFLECYDLQAATYHVVFT'
p683
sS'HLA-DRB1*01:07'
p684
S'WLFLECYDLQRATYHVGFT'
p685
sS'HLA-DRB1*01:04'
p686
S'WLFLECYDLQRANYHVVFT'
p687
sS'HLA-DRB1*01:05'
p688
S'WLFLECYDLQRATYHVGFT'
p689
sS'DRB1_1608'
p690
g300
sS'HLA-DRB1*08:16'
p691
S'ESGFDYYSFDRLTYHVGFT'
p692
sS'DRB1_1354'
p693
g220
sS'HLA-DRB3*01:12'
p694
S'ERSYDYYVLQKRNYHVGFT'
p695
sS'DRB3_0209'
p696
g515
sS'HLA-DRB1*15:26'
p697
g126
sS'DRB1_1503'
p698
S'WPRFDHFDIQAATYHVVFT'
p699
sS'HLA-DRB3*01:11'
p700
S'ERSYDYYVLQKRNYHVGFT'
p701
sS'DRB1_1460'
p702
g156
sS'HLA-DRB1*03:22'
p703
S'ESSYDYFDLQKRNYHVVFT'
p704
sS'HLA-DRB1*03:23'
p705
S'ESSYDYFDLQKRNYHVVFT'
p706
sS'HLA-DRB1*03:20'
p707
S'ESSYDYFDLQKRNYHAVFT'
p708
sS'HLA-DRB1*03:21'
p709
S'ESSFDYFDLQKRNYHVVFT'
p710
sS'HLA-DRB1*03:26'
p711
S'ESSYDYYDLQKRNYHVVFT'
p712
sS'HLA-DRB1*03:27'
p713
S'ESSFEYYDLQKQNYHVGFT'
p714
sS'HLA-DRB1*03:24'
p715
S'ESSFDYFDLQKQNYHVVFT'
p716
sS'HLA-DRB1*03:25'
p717
S'ESSYDYFDLQKRNYHVVFT'
p718
sS'HLA-DRB1*08:38'
p719
g63
sS'HLA-DRB1*08:39'
p720
g65
sS'HLA-DRB1*03:28'
p721
S'ESSYDYFDLQKRNYHVVFT'
p722
sS'HLA-DRB1*03:29'
p723
S'ESSFEYFDLQKRNYHVGFT'
p724
sS'DRB1_1301'
p725
g119
sS'DRB1_1469'
p726
S'ESSFDYYALDRATYHVGFT'
p727
sS'DRB1_1303'
p728
g128
sS'DRB1_1302'
p729
g31
sS'HLA-DRB1*13:38'
p730
g336
sS'HLA-DRB1*13:39'
p731
g338
sS'DRB1_1138'
p732
S'ESSFDYFDFDRATYHVVFT'
p733
sS'DRB1_1139'
p734
S'ESSFDYFDFDRATYHVGFT'
p735
sS'HLA-DRB1*04:38'
p736
S'EVHFDYYDIQKATYHVGFT'
p737
sS'HLA-DRB1*04:39'
p738
S'EVHFDYYDLQRETYHVVFT'
p739
sS'HLA-DRB1*14:52'
p740
S'ESGFEYYDLQRATYHVVFT'
p741
sS'HLA-DRB1*04:34'
p742
S'EVPFDYYDLQKATYHVGFT'
p743
sS'HLA-DRB1*04:35'
p744
S'EVHFDYFDLQKATYHVGFT'
p745
sS'HLA-DRB1*04:36'
p746
S'EVHFDYYDFDRATYHVVFT'
p747
sS'HLA-DRB1*04:37'
p748
S'EVHFDYYDLDEATYHVVFT'
p749
sS'HLA-DRB1*04:30'
p750
S'EVHFDYYSLQRATYHVGFT'
p751
sS'HLA-DRB1*04:31'
p752
S'EVHFDYYDLQRLTYHVGFT'
p753
sS'DRB1_1134'
p754
g633
sS'HLA-DRB1*04:33'
p755
S'EVHFDYYDLQKATYHVGFT'
p756
sS'DRB1_1525'
p757
S'WPRFDYFDLQKRNYHVVFT'
p758
sS'DRB1_1446'
p759
S'ERSFEYYDLQRATYHVGFT'
p760
sS'DRB1_1488'
p761
S'ESSFDYYALRRETYHVVFT'
p762
sS'HLA-DRB1*14:50'
p763
S'ESGFDYYALRRENYHVVFT'
p764
sS'HLA-DRB1*14:70'
p765
S'ESSFDHYALRRETYHVVFT'
p766
sS'DRB1_1520'
p767
S'WPRFDYFDIQAATYHVVFT'
p768
sS'DRB1_1523'
p769
g663
sS'DRB1_1447'
p770
S'ESSFEYYDLQRANYHVGFT'
p771
sS'DRB1_1482'
p772
S'ESSYDYYALRRETYHVVFT'
p773
sS'HLA-DRB1*14:57'
p774
S'EVHFDYYAIDEATYHVVFT'
p775
sS'DRB1_1480'
p776
S'ESSFDYYDLQRATYHVVFT'
p777
sS'DRB1_1481'
p778
S'ESSFEYYDLRRATYHVVFT'
p779
sS'DRB1_1486'
p780
S'ESSFDYYALRRETYHVVFT'
p781
sS'DRB1_1444'
p782
S'ESSFDYYDLRRETYHVGFT'
p783
sS'DRB1_1484'
p784
S'ESSFDYYDLDRLTYHVVFT'
p785
sS'HLA-DRB1*14:56'
p786
S'ESSFDYYDLRRETYHVVFT'
p787
sS'HLA-DRB1*14:63'
p788
S'ESSFEYYSIDRLTYHVGFT'
p789
sS'DRB1_1445'
p790
S'ESSFDYYDIRRETYHVVFT'
p791
sS'HLA-DRB1*14:55'
p792
S'ESSFDYYALRRLTYHVVFT'
p793
sS'DRB1_1442'
p794
S'ESSFDYFDLRRETYHVGFT'
p795
sS'DRB1_1462'
p796
S'ESSFDYYTLRRETYHVVFT'
p797
sS'HLA-DR18'
p798
S'ESSFEYYDLQKRNYHVGFT'
p799
sS'DRB1_1443'
p800
S'ESSFDYYDLRREAYHVVFT'
p801
sS'HLA-DRB1*04:89'
p802
g499
sS'HLA-DRB1*04:88'
p803
g501
sS'HLA-DRB1*13:87'
p804
S'ESSFDYFDIDEATYHVVFT'
p805
sS'HLA-DRB1*13:86'
p806
S'ESSFEYFDLQRATYHVGFT'
p807
sS'HLA-DRB1*13:81'
p808
S'ESSFDYYSIDKATYHAVFT'
p809
sS'HLA-DRB1*08:18'
p810
S'ESGFDYYSIDRATYHVGFT'
p811
sS'HLA-DRB1*13:83'
p812
S'ESSFDYFDIDEATYHVVFT'
p813
sS'HLA-DRB1*13:82'
p814
S'ESSFDYFDIDRATYHVGFT'
p815
sS'HLA-DRB1*04:80'
p816
g485
sS'HLA-DRB1*04:83'
p817
g487
sS'HLA-DRB1*04:82'
p818
g489
sS'HLA-DRB1*04:85'
p819
g491
sS'HLA-DRB1*04:84'
p820
g493
sS'HLA-DRB1*04:87'
p821
g495
sS'HLA-DRB1*04:86'
p822
g497
sS'HLA-DRB1*13:88'
p823
S'ESSFDYYSLDKATYHVGFT'
p824
sS'DRB1_0711'
p825
S'WGYFELYVIDRQTYHVGFT'
p826
sS'HLA-DRB1*15:45'
p827
S'WPRFDYFDIQAATYHVVFT'
p828
sS'HLA-DRB1*15:44'
p829
S'WPRFDYFDIQAATYHVGFT'
p830
sS'HLA-DRB1*15:43'
p831
S'WPRFDYFDIQAATYHVVFT'
p832
sS'HLA-DRB1*15:42'
p833
S'WPRFDYFDIQAATYHVVFT'
p834
sS'DRB1_1362'
p835
S'ESSFDYFDFDRATYHVGFT'
p836
sS'DRB1_1450'
p837
g764
sS'DRB1_0351'
p838
S'ESSYDYFDLQKRNYHVVFT'
p839
sS'DRB1_0350'
p840
S'ESSYDYFDLQKRNYHVVFT'
p841
sS'DRB1_0353'
p842
S'ESSFEYYDLQKRNYHVGFT'
p843
sS'DRB1_0352'
p844
S'ESSYDYFDLQKRNYHVVFT'
p845
sS'DRB1_0355'
p846
S'ESSYDYFDLQKRNYHVVFT'
p847
sS'DRB1_0354'
p848
S'ESSYDYFDLQKRNYHVVFT'
p849
sS'HLA-DRB1*15:49'
p850
S'WPRFDYFDTQAATYHVVFT'
p851
sS'HLA-DRB1*15:48'
p852
S'WPRFDYYDIQAATYHVVFT'
p853
sS'DRB1_0712'
p854
S'WGYFELYIIDRQTVHVGFT'
p855
sS'DRB1_1475'
p856
S'ESSFDYYALRRETYYVVFT'
p857
sS'HLA-DRB1*11:89'
p858
S'ESSFDYFDFRRETYHVVFT'
p859
sS'HLA-DRB1*11:88'
p860
S'ESSFDYYDFDRATYHVVFT'
p861
sS'HLA-DRB1*11:87'
p862
S'ESSYDYFDFDRATYHVGFT'
p863
sS'DRB1_0715'
p864
S'WGYFELYVIDRQTVHVGFT'
p865
sS'HLA-DRB1*11:85'
p866
S'ESSFDYFDFDEATYHVVFT'
p867
sS'HLA-DRB1*11:84'
p868
S'ESSFDYFDFDRANYHVVFT'
p869
sS'HLA-DRB1*11:83'
p870
S'ESSYDYYDFDRATYHVVFT'
p871
sS'HLA-DRB1*11:82'
p872
S'ESSFDYFDIQAATYHVGFT'
p873
sS'HLA-DRB1*11:81'
p874
g575
sS'DRB1_0714'
p875
S'WGYFELYVIDRQTVHVGFT'
p876
sS'DRB1_1519'
p877
g553
sS'HLA-DRB4*01:07'
p878
S'EACNIYYDLRRETYYVVFT'
p879
sS'DRB1_1614'
p880
S'WPRFDYYELDRATYHVGFT'
p881
sS'HLA-DRB1*13:18'
p882
S'ESSFDYFDFDRLTYHVVFT'
p883
sS'DRB1_1133'
p884
g639
sS'DRB1_0716'
p885
S'WGYFELYVIDRQTVHVGFT'
p886
sS'DRB5_0114'
p887
S'QDYFHDYDFDRATYHVGFT'
p888
sS'DRB1_1309'
p889
S'ESSFDYFDIQAATYHVVFT'
p890
sS'HLA-DRB1*13:16'
p891
g246
sS'HLA-DRB4*01:04'
p892
g276
sS'DRB1_0328'
p893
g722
sS'DRB1_0329'
p894
g724
sS'HLA-DRB1*13:17'
p895
g290
sS'DRB1_0324'
p896
g716
sS'DRB1_0325'
p897
g718
sS'DRB1_0326'
p898
g712
sS'DRB1_0327'
p899
g714
sS'DRB1_0320'
p900
g708
sS'DRB1_0321'
p901
g710
sS'DRB1_0322'
p902
g704
sS'DRB1_0323'
p903
g706
sS'HLA-DRB1*14:88'
p904
g762
sS'HLA-DRB1*14:89'
p905
S'ESSFEYYDLQRLTYHVGFT'
p906
sS'DRB1_1130'
p907
g641
sS'DRB1_1318'
p908
g883
sS'HLA-DRB1*14:80'
p909
g777
sS'HLA-DRB1*14:81'
p910
g779
sS'HLA-DRB1*14:82'
p911
g773
sS'DRB1_1319'
p912
g121
sS'HLA-DRB1*14:84'
p913
g785
sS'DRB1_1308'
p914
g61
sS'HLA-DRB1*14:86'
p915
g781
sS'HLA-DRB1*14:87'
p916
S'ESSFDYYALRRETYHVVFT'
p917
sS'DRB1_0456'
p918
S'EVHFDYYDIQRATYHVVFT'
p919
sS'DRB1_0457'
p920
S'EVHFDYYSLQRATYHVGFT'
p921
sS'DRB1_0454'
p922
S'EVHFDYYDFDRLTYHVGFT'
p923
sS'DRB1_0455'
p924
S'EVHFDYYDLQRLTYHVVFT'
p925
sS'DRB1_0452'
p926
S'EVHFDYYDLQRETYHVVFT'
p927
sS'DRB1_0453'
p928
S'EVHFDYYDIDRATYHVVFT'
p929
sS'DRB1_0450'
p930
S'EVHFDYYDLQRETHHVVFT'
p931
sS'DRB1_0451'
p932
S'EVHFDYYDLQRETYYVVFT'
p933
sS'HLA-DRB1*13:11'
p934
S'ESSFDYFDFDRATYHVVFT'
p935
sS'DRB1_0458'
p936
S'EVHFDYYDLDRLTYHVVFT'
p937
sS'DRB1_0459'
p938
S'EVHFDYFDLQRETYHVVFT'
p939
sS'DRB1_1131'
p940
g643
sS'DRB1_1499'
p941
S'ESSFDYYALRRETYHAVFT'
p942
sS'DRB5_0112'
p943
S'QDYFHDYDFRRETVHVGFT'
p944
sS'HLA-DR1'
p945
g681
sS'HLA-DRB1*11:72'
p946
S'ESSLECFDFDRATYHVGFT'
p947
sS'HLA-DRB1*11:73'
p948
S'ESSFDYFDIDKATYHVGFT'
p949
sS'HLA-DRB1*11:70'
p950
S'ESSFDYFDIDEVTYHVVFT'
p951
sS'HLA-DRB1*14:06'
p952
S'ESSFEYYDLQRATYHVVFT'
p953
sS'HLA-DRB1*11:76'
p954
S'ESSFDYFDFDEATYHVVFT'
p955
sS'HLA-DRB1*11:77'
p956
S'ESSFDYFDFDRATYHVVFT'
p957
sS'HLA-DRB1*11:74'
p958
S'ESSFDYFDFDRATYHVGFT'
p959
sS'DRB1_1132'
p960
g637
sS'DRB3_0114'
p961
g527
sS'HLA-DRB1*11:78'
p962
S'ESSFDYFDFDRATYHVVFT'
p963
sS'HLA-DRB1*11:79'
p964
S'ESSFDYFDLQKATYHVGFT'
p965
sS'HLA-DRB1*14:39'
p966
S'EPSFDYYALRRETYHVVFT'
p967
sS'HLA-DRB1*14:38'
p968
S'ESSFDYYALRRENYHVVFT'
p969
sS'HLA-DRB1*15:21'
p970
g158
sS'HLA-DRB1*14:16'
p971
S'ESSFDYYAIDEATYHVVFT'
p972
sS'DRB1_1352'
p973
g186
sS'DRB1_1353'
p974
g188
sS'DRB1_1350'
p975
g190
sS'DRB1_1351'
p976
g369
sS'DRB1_1356'
p977
g208
sS'DRB1_1357'
p978
g216
sS'HLA-DRB1*12:17'
p979
S'ESGLEHFVIDRATYHAVFT'
p980
sS'DRB1_1355'
p981
g226
sS'HLA-DRB1*16:11'
p982
S'WPRFDYYDLDRATYHVGFT'
p983
sS'DRB1_1358'
p984
S'ESSFDYYSIDRATYHAVFT'
p985
sS'DRB1_1359'
p986
S'ESSFDYFDIDEATYHVVFT'
p987
sS'HLA-DR15'
p988
g250
sS'DRB3_0224'
p989
S'ELSFEHYDLQKQNYHVVFT'
p990
sS'HLA-DRB1*13:24'
p991
S'ESSFDYFDFDEATYHVVFT'
p992
sS'HLA-DRB1*14:65'
p993
S'ESSFDYFSLRRATYHVVFT'
p994
sS'HLA-DR13'
p995
g119
sS'DRB1_1545'
p996
g828
sS'HLA-DR12'
p997
S'ESGLEHFVIDRATYHAVFT'
p998
sS'HLA-DRB1*13:89'
p999
S'ESSFDYYSIDKATYHVVFT'
p1000
sS'DRB1_1544'
p1001
g830
sS'HLA-DRB1*12:16'
p1002
S'ESGLEHFVFDRATYHVGFT'
p1003
sS'HLA-DRB1*13:21'
p1004
S'ESSFDYFSFDRATYHVGFT'
p1005
sS'HLA-DRB1*13:35'
p1006
g322
sS'HLA-DRB1*16:15'
p1007
S'WPRFDYYDFDRATYHVVFT'
p1008
sS'HLA-DRB1*16:14'
p1009
g881
sS'HLA-DRB1*13:20'
p1010
S'ESSFDYFDLDEATYHVVFT'
p1011
sS'DRB1_1470'
p1012
g766
sS'HLA-DRB1*16:10'
p1013
S'WPRFDYFDLDRATYHVGFT'
p1014
sS'HLA-DRB1*16:12'
p1015
S'WPKFDYYDLDRATYHVGFT'
p1016
sS'DRB1_1107'
p1017
S'ESSFDYFDLQKRNYHVVFT'
p1018
sS'DRB1_1106'
p1019
g232
sS'HLA-DR5'
p1020
g232
sS'DRB1_1222'
p1021
g593
sS'DRB1_1105'
p1022
g234
sS'DRB1_1220'
p1023
g589
sS'DRB1_1221'
p1024
g591
sS'DRB1_1176'
p1025
g955
sS'DRB1_1177'
p1026
g957
sS'DRB1_1174'
p1027
g959
sS'DRB1_1175'
p1028
g577
sS'DRB1_1172'
p1029
g947
sS'DRB1_1173'
p1030
g949
sS'DRB1_1170'
p1031
g951
sS'HLA-DRB1*13:10'
p1032
S'ESSFDSYSIDKATYHVGFT'
p1033
sS'DRB1_1103'
p1034
g238
sS'DRB1_1178'
p1035
g963
sS'DRB1_1102'
p1036
g240
sS'HLA-DRB1*13:29'
p1037
S'ESSFDYFDLDEATYHVGFT'
p1038
sS'DRB1_1135'
p1039
g635
sS'HLA-DRB5*01:12'
p1040
g944
sS'DRB1_1307'
p1041
g562
sS'DRB3_0113'
p1042
g117
sS'DRB1_1465'
p1043
g994
sS'DRB1_1223'
p1044
g595
sS'DRB1_0104'
p1045
g687
sS'DRB1_0105'
p1046
g689
sS'DRB1_0106'
p1047
g683
sS'DRB1_0107'
p1048
g685
sS'DRB1_1459'
p1049
g152
sS'DRB1_0101'
p1050
g681
sS'DRB1_0102'
p1051
g677
sS'DRB1_0103'
p1052
g679
sS'DRB1_1455'
p1053
g793
sS'DRB1_1454'
p1054
g148
sS'DRB1_1457'
p1055
g775
sS'DRB1_1456'
p1056
g787
sS'DRB1_0108'
p1057
g669
sS'DRB1_0109'
p1058
g671
sS'DRB1_1453'
p1059
S'ESSFDYFAFDRATYHVGFT'
p1060
sS'DRB1_1452'
p1061
g741
sS'DRB1_0315'
p1062
g316
sS'DRB1_0314'
p1063
g318
sS'DRB1_0317'
p1064
g312
sS'DRB1_0311'
p1065
g308
sS'DRB1_0310'
p1066
g310
sS'DRB1_0313'
p1067
g304
sS'HLA-DR53'
p1068
g130
sS'DRB1_0319'
p1069
g294
sS'DRB1_0318'
p1070
g296
sS'DRB5_0108N'
p1071
S'QDYFHGYDFDRATYHVGFT'
p1072
sS'HLA-DRB1*04:67'
p1073
S'EVHFDYYSLQKATYHVVFT'
p1074
sS'HLA-DRB1*04:66'
p1075
S'EASFDYYDLQKATYHVGFT'
p1076
sS'HLA-DRB1*04:65'
p1077
S'EVHFDYYDLQWETYHVVFT'
p1078
sS'HLA-DRB1*04:64'
p1079
S'EVYFDYYDLQKATYHVGFT'
p1080
sS'HLA-DRB1*04:63'
p1081
S'EVHFDYYDLQKATYHVGFT'
p1082
sS'HLA-DRB1*04:62'
p1083
S'EVHFDYYALQKATYHVGFT'
p1084
sS'HLA-DRB1*04:61'
p1085
S'EVHFDYYDLQRATYHVGFT'
p1086
sS'HLA-DRB1*04:60'
p1087
S'EVHFDYYDLQRETYHVVFT'
p1088
sS'HLA-DRB1*04:69'
p1089
S'EVHFDYYALRRETYHVGFT'
p1090
sS'HLA-DRB1*04:68'
p1091
S'EVHFDYYDLQRATYHVVFT'
p1092
sS'HLA-DRB1*13:69'
p1093
S'ESSFDYFDIDEATYHVVFT'
p1094
sS'DRB1_0816'
p1095
g692
sS'DRB1_0814'
p1096
S'ESGFDYYSIDRLTYHVGFT'
p1097
sS'DRB1_0815'
p1098
S'ESGFDYYDIDRLTYHVGFT'
p1099
sS'DRB1_0812'
p1100
S'ESGFDYYSIDRLTYHAVFT'
p1101
sS'DRB1_0813'
p1102
S'ESGFDYYDLDRLTYHVGFT'
p1103
sS'DRB1_0810'
p1104
S'ESGFDYYSIDRLTYHVVFT'
p1105
sS'DRB1_0811'
p1106
S'ESGFDYYAFDRLTYHVGFT'
p1107
sS'HLA-DRB1*13:74'
p1108
S'ESSFDYFDIDEATYHVGFT'
p1109
sS'HLA-DRB1*13:75'
p1110
S'ESSFDYFSFDEATYHVVFT'
p1111
sS'DRB1_1189'
p1112
g859
sS'HLA-DRB1*13:77'
p1113
S'ESSFDYFVIDRATYHVVFT'
p1114
sS'HLA-DRB1*13:70'
p1115
S'ESSFDYYDIDEATYHVVFT'
p1116
sS'HLA-DRB1*13:71'
p1117
S'ESSYDYFDLDEATYHVVFT'
p1118
sS'DRB1_0818'
p1119
g811
sS'DRB1_0819'
p1120
g288
sS'DRB1_0491'
p1121
g105
sS'HLA-DRB1*11:38'
p1122
g733
sS'HLA-DRB1*11:39'
p1123
g735
sS'HLA-DRB1*15:46'
p1124
S'WPRFDYFDIQAATYHVVFT'
p1125
sS'HLA-DRB1*11:36'
p1126
S'ESSFDYFDLDEATYHVVFT'
p1127
sS'DRB1_1491'
p1128
S'ESSFDYYDLRRETYHVVFT'
p1129
sS'HLA-DRB1*11:37'
p1130
S'ESSFDYYDFDRATYHVGFT'
p1131
sS'DRB5_0101'
p1132
S'QDYFHDYDFDRATYHVGFT'
p1133
sS'DRB5_0102'
p1134
S'QDYFHGYDFDRATYHVGFT'
p1135
sS'DRB1_1179'
p1136
g965
sS'DRB5_0104'
p1137
S'QDYFHDYDFDRLTYHVGFT'
p1138
sS'HLA-DRB1*13:61'
p1139
S'ESSFDYFDIDEANYHVVFT'
p1140
sS'HLA-DRB1*14:32'
p1141
S'ESSFDYYALRRATYHVVFT'
p1142
sS'HLA-DRB1*14:79'
p1143
S'ESGFDYYALQKRNYHVVFT'
p1144
sS'HLA-DRB1*14:78'
p1145
S'ESSFEYYSIDRLTYHVVFT'
p1146
sS'HLA-DRB3*02:17'
p1147
g214
sS'HLA-DRB1*14:71'
p1148
S'ESGFDYYALRRETYHVMFT'
p1149
sS'HLA-DRB1*13:67'
p1150
S'ELSFDYFDIDEATYHVGFT'
p1151
sS'HLA-DRB1*14:73'
p1152
S'ESGFDYYAFDRETYHVVFT'
p1153
sS'HLA-DRB1*14:72'
p1154
g167
sS'HLA-DRB1*14:75'
p1155
g857
sS'HLA-DRB1*14:74'
p1156
S'ESSFDYYALDRATYHVVFT'
p1157
sS'HLA-DRB1*14:77'
p1158
S'ESSFEYYDLDRLTYHVGFT'
p1159
sS'HLA-DRB1*13:66'
p1160
S'ESSFDYFSIDKATYHVGFT'
p1161
sS'HLA-DRB1*15:09'
p1162
g475
sS'HLA-DRB1*15:08'
p1163
g510
sS'DRB1_1490'
p1164
S'ESSFDYYALRRETYHVVFT'
p1165
sS'HLA-DRB1*13:65'
p1166
S'ESSFDYYSIDEATYHVGFT'
p1167
sS'HLA-DR16'
p1168
S'WPRFDYYDFDRATYHVGFT'
p1169
sS'HLA-DRB1*15:03'
p1170
g699
sS'DRB1_1463'
p1171
g789
sS'HLA-DRB1*15:01'
p1172
g250
sS'HLA-DRB1*13:64'
p1173
S'ESSFDYFDIDEATYHVVFT'
p1174
sS'HLA-DRB1*15:07'
p1175
S'WPRFDYYDIQAATYHVVFT'
p1176
sS'HLA-DRB1*15:06'
p1177
S'WPRFDYFDIQAATYHVVFT'
p1178
sS'HLA-DRB1*15:05'
p1179
S'WPRFDYFDLQAATYHVVFT'
p1180
sS'HLA-DRB1*15:04'
p1181
S'WPRFDYFDFQAATYHVVFT'
p1182
sS'HLA-DRB1*16:07'
p1183
g436
sS'HLA-DRB3*02:11'
p1184
S'ELSFEHYDIQKQNYHVGFT'
p1185
sS'HLA-DRB1*14:12'
p1186
g651
sS'DRB1_1489'
p1187
g906
sS'DRB1_0429'
p1188
S'EVHFDYYSLQRATYHVGFT'
p1189
sS'DRB1_0428'
p1190
S'EVHFDYFSLQRATYHVGFT'
p1191
sS'DRB1_0427'
p1192
S'EVHFDYYDLQRETYHAVFT'
p1193
sS'DRB1_0426'
p1194
S'EVHFDYYDLQKATYHVGFT'
p1195
sS'DRB1_0424'
p1196
S'EVHFDYYSLRRATYHVGFT'
p1197
sS'DRB1_0423'
p1198
S'EVHFDYYDLQRATYHVVFT'
p1199
sS'DRB1_0422'
p1200
S'EVHFDYYDLQKRNYHVVFT'
p1201
sS'DRB1_0421'
p1202
S'EVHFDYYDLQKATYHVGFT'
p1203
sS'DRB1_1414'
p1204
S'ESSFDYYDLRRETYHVGFT'
p1205
sS'HLA-DRB1*11:07'
p1206
g1018
sS'DRB1_1611'
p1207
g983
sS'DRB1_1128'
p1208
S'ESSFDYFDFDRATYHVGFT'
p1209
sS'DRB1_1473'
p1210
g1153
sS'HLA-DRB1*07:19'
p1211
S'WGYFELYVIDRQTVHVGFT'
p1212
sS'HLA-DRB1*14:27'
p1213
S'ESSFEYYDFDRLTYHVGFT'
p1214
sS'HLA-DRB1*07:17'
p1215
S'WGYFELYVIDRQTVHVGFT'
p1216
sS'HLA-DRB1*07:16'
p1217
g886
sS'HLA-DRB1*07:15'
p1218
g865
sS'HLA-DRB1*07:14'
p1219
g876
sS'HLA-DRB1*07:13'
p1220
g230
sS'HLA-DRB1*07:12'
p1221
g855
sS'HLA-DRB1*07:11'
p1222
g826
sS'HLA-DRB1*14:25'
p1223
g413
sS'HLA-DRB1*11:29'
p1224
g3
sS'HLA-DRB1*11:28'
p1225
g1209
sS'HLA-DRB1*11:25'
p1226
g25
sS'HLA-DRB1*11:24'
p1227
g27
sS'HLA-DRB1*11:27'
p1228
g29
sS'HLA-DRB1*11:21'
p1229
g17
sS'HLA-DRB1*11:20'
p1230
g19
sS'HLA-DRB1*14:23'
p1231
S'ESSFDYYDLRRETYHVVFT'
p1232
sS'DRB1_1402'
p1233
S'ESSFEYYDLQRATYHVGFT'
p1234
sS'DRB1_1403'
p1235
g150
sS'HLA-DRB5*01:04'
p1236
g1138
sS'DRB1_1401'
p1237
S'ESSFDYYALRRETYHVVFT'
p1238
sS'DRB1_1406'
p1239
g953
sS'DRB1_1407'
p1240
g292
sS'DRB1_1404'
p1241
S'ESGFDYYALRRETYHVVFT'
p1242
sS'DRB1_1405'
p1243
S'ESSFDYYDLRRETYHVVFT'
p1244
sS'HLA-DRB1*14:94'
p1245
g57
sS'DRB1_1441'
p1246
g555
sS'DRB1_1408'
p1247
S'ESSFDYYDLRRETYHVVFT'
p1248
sS'DRB1_1409'
p1249
g372
sS'DRB3_0223'
p1250
S'ELSFEHYDLQKQNYHVGFT'
p1251
sS'HLA-DRB3*02:22'
p1252
S'ELSFEHYDLQKRNYHVGFT'
p1253
sS'HLA-DRB1*01:19'
p1254
g407
sS'HLA-DRB1*01:18'
p1255
g409
sS'HLA-DRB1*15:02'
p1256
S'WPRFDYFDIQAATYHVGFT'
p1257
sS'DRB3_0201'
p1258
g508
sS'HLA-DRB3*02:21'
p1259
g272
sS'DRB3_0202'
p1260
g503
sS'HLA-DRB1*01:11'
p1261
g391
sS'HLA-DRB1*01:10'
p1262
g393
sS'HLA-DRB1*01:13'
p1263
g387
sS'HLA-DRB1*01:12'
p1264
g389
sS'HLA-DRB1*01:15'
p1265
g399
sS'HLA-DRB1*01:14'
p1266
g401
sS'HLA-DRB1*01:17'
p1267
g395
sS'HLA-DRB1*01:16'
p1268
g397
sS'DRB1_1471'
p1269
g1149
sS'HLA-DRB1*13:94'
p1270
g87
sS'HLA-DRB1*14:53'
p1271
g1060
sS'HLA-DRB1*08:29'
p1272
S'ESGFDYYSIDRETYHVGFT'
p1273
sS'HLA-DRB1*08:28'
p1274
S'ESGFDYFDFDRLTYHVVFT'
p1275
sS'HLA-DRB1*08:27'
p1276
S'ESGFDYYSIDRLTYHVGFT'
p1277
sS'HLA-DRB1*08:26'
p1278
S'ESGFDYYSFDRLTYHVGFT'
p1279
sS'HLA-DRB1*08:25'
p1280
S'ESGFDYYVIDRATYHVGFT'
p1281
sS'HLA-DRB1*08:24'
p1282
S'ESGFDYYDFDRATYHVGFT'
p1283
sS'HLA-DRB1*08:23'
p1284
S'ESGFDYYSIDRLTYHVGFT'
p1285
sS'HLA-DRB1*08:22'
p1286
S'ESGFDYYSFDRLTYHAVFT'
p1287
sS'HLA-DRB1*08:21'
p1288
S'ESGFDYYDFDRLTYHVGFT'
p1289
sS'HLA-DRB1*08:20'
p1290
S'ESSFDYYDFDRLTYHVVFT'
p1291
sS'HLA-DRB1*03:31'
p1292
g174
sS'HLA-DRB1*03:30'
p1293
g176
sS'HLA-DRB1*03:33'
p1294
g170
sS'HLA-DRB1*03:32'
p1295
g172
sS'HLA-DRB1*03:35'
p1296
g182
sS'HLA-DRB1*03:34'
p1297
g184
sS'HLA-DRB1*03:37'
p1298
g178
sS'HLA-DRB1*03:36'
p1299
g180
sS'HLA-DRB1*03:39'
p1300
g162
sS'HLA-DRB1*03:38'
p1301
g164
sS'DRB1_1314'
p1302
S'ESSFDYFDFDRATYHVGFT'
p1303
sS'DRB1_1315'
p1304
S'ESSFEYFDIDEATYHVVFT'
p1305
sS'DRB1_1312'
p1306
S'ESSFDYYSIDRATYHVGFT'
p1307
sS'DRB1_1313'
p1308
S'ESSFDYYSIDRLTYHVGFT'
p1309
sS'DRB1_1310'
p1310
g1033
sS'DRB1_1311'
p1311
g935
sS'HLA-DRB1*13:27'
p1312
S'ESSYDYFDIDEATYHVVFT'
p1313
sS'HLA-DRB1*13:26'
p1314
S'ESSFEYYDFDRATYHVGFT'
p1315
sS'HLA-DRB1*04:29'
p1316
g1189
sS'HLA-DRB1*04:28'
p1317
g1191
sS'HLA-DRB1*13:23'
p1318
S'ESSFDYFDIDEATYHVGFT'
p1319
sS'HLA-DRB1*13:22'
p1320
S'ESSFDYFDIDEATYHVVFT'
p1321
sS'DRB1_1109'
p1322
g252
sS'DRB1_1108'
p1323
g254
sS'HLA-DRB1*04:23'
p1324
g1199
sS'HLA-DRB1*04:22'
p1325
g1201
sS'HLA-DRB1*04:21'
p1326
g1203
sS'DRB1_1104'
p1327
g236
sS'HLA-DRB1*04:27'
p1328
g1193
sS'HLA-DRB1*04:26'
p1329
g1195
sS'DRB1_1101'
p1330
g242
sS'HLA-DRB1*04:24'
p1331
g1197
sS'DRB1_1536'
p1332
S'WPRFDYFDIQAATYRVVFT'
p1333
sS'DRB1_1537'
p1334
S'WPRFDYFDIQAANYHVVFT'
p1335
sS'DRB1_1534'
p1336
S'WPRFDYYDLQRATYHVGFT'
p1337
sS'HLA-DRB1*15:31'
p1338
S'WPRFDYFDLQAATYHVGFT'
p1339
sS'DRB1_1532'
p1340
S'WPRFDYFDIQAATYHVVFT'
p1341
sS'HLA-DRB1*14:11'
p1342
g645
sS'DRB1_1467'
p1343
g665
sS'DRB1_1531'
p1344
g1339
sS'DRB1_1527'
p1345
S'WPRFDYFDLQRATYHVGFT'
p1346
sS'HLA-DRB1*14:10'
p1347
g647
sS'HLA-DR11'
p1348
g242
sS'DRB1_1477'
p1349
g1159
sS'DRB1_1538'
p1350
S'WPRFDYFDIQAATYHVGFT'
p1351
sS'DRB1_1539'
p1352
S'WPRFDYFDIQAATYHVGFT'
p1353
sS'HLA-DRB3*01:04'
p1354
S'ERSYDYYVLQKRNYHVGFT'
p1355
sS'HLA-DRB5*02:05'
p1356
g434
sS'HLA-DRB3*01:05'
p1357
S'ERSYNYYVLQKRNYHVGFT'
p1358
sS'HLA-DRB3*01:08'
p1359
g571
sS'HLA-DRB1*15:35'
p1360
S'WPRFDYFDIQAATYHAVFT'
p1361
sS'HLA-DRB1*13:73'
p1362
S'ESSFDYFDIDEATYHVGFT'
p1363
sS'HLA-DRB1*14:17'
p1364
g655
sS'DRB1_1398'
p1365
g469
sS'DRB3_0222'
p1366
g1253
sS'DRB1_1399'
p1367
g477
sS'DRB1_0131'
p1368
g284
sS'DRB1_0130'
p1369
g286
sS'DRB1_0132'
p1370
g282
sS'DRB1_1429'
p1371
g298
sS'HLA-DRB1*14:44'
p1372
g783
sS'DRB1_0348'
p1373
S'ESSYDYFDLQKRNYHIVFT'
p1374
sS'DRB1_0349'
p1375
S'ESSFDYFDLQKRNYHVVFT'
p1376
sS'HLA-DRB1*15:36'
p1377
g1333
sS'HLA-DRB1*15:37'
p1378
g1335
sS'HLA-DRB1*15:34'
p1379
g1337
sS'HLA-DRB1*14:45'
p1380
g791
sS'DRB1_0342'
p1381
S'ERSYDYFDLQKRNYHVVFT'
p1382
sS'DRB1_0343'
p1383
S'ESSYDYFDLQKRNYHVVFT'
p1384
sS'DRB1_0340'
p1385
S'ESSFDYFDLQKRNYHVGFT'
p1386
sS'DRB1_0341'
p1387
S'ESSFDYYDLQKRNYHVGFT'
p1388
sS'DRB1_0346'
p1389
S'ESSYDYFDLQKRNYHVVFT'
p1390
sS'DRB1_0347'
p1391
S'ESSYDYFDLQKRNYHVVFT'
p1392
sS'DRB1_0344'
p1393
S'ESSYDYFDLQKRNYHVVFT'
p1394
sS'DRB1_0345'
p1395
S'ESSYDYFDLQKRNYHVVFT'
p1396
sS'HLA-DRB1*14:47'
p1397
g771
sS'HLA-DRB1*04:58'
p1398
g937
sS'HLA-DRB1*04:59'
p1399
g939
sS'HLA-DRB1*04:56'
p1400
g919
sS'HLA-DRB1*04:57'
p1401
g921
sS'HLA-DRB1*04:54'
p1402
g923
sS'HLA-DRB1*04:55'
p1403
g925
sS'HLA-DRB1*04:52'
p1404
g927
sS'HLA-DRB1*04:53'
p1405
g929
sS'HLA-DRB1*04:50'
p1406
g931
sS'HLA-DRB1*04:51'
p1407
g933
sS'HLA-DRB1*01:01 C30S'
p1408
S'WLFLESYDLQRATYHVGFT'
p1409
sS'HLA-DRB1*14:42'
p1410
g795
sS'HLA-DRB3'
p1411
S'ERSYDYYVLQKRNYHVGFT'
p1412
sS'DRB1_1451'
p1413
S'ESSFEYYDLQRETYHVGFT'
p1414
sS'HLA-DRB1*14:26'
p1415
g415
sS'HLA-DRB1*14:15'
p1416
S'ESGFDYYDFDRLTYHVVFT'
p1417
sS'DRB1_1421'
p1418
g244
sS'HLA-DRB*131:01'
p1419
g374
sS'HLA-DRB*131:00'
p1420
g376
sS'HLA-DRB1*14:97'
p1421
g59
sS'HLA-DRB1*14:96'
p1422
g248
sS'DRB1_0469'
p1423
g1090
sS'DRB1_0468'
p1424
g1092
sS'HLA-DRB1*14:93'
p1425
g53
sS'HLA-DRB1*14:91'
p1426
g1129
sS'HLA-DRB1*14:90'
p1427
g1165
sS'DRB1_0463'
p1428
g1082
sS'DRB1_0462'
p1429
g1084
sS'DRB1_0461'
p1430
g1086
sS'DRB1_0460'
p1431
g1088
sS'DRB1_0467'
p1432
g1074
sS'DRB1_0466'
p1433
g1076
sS'DRB1_0465'
p1434
g1078
sS'DRB1_0464'
p1435
g1080
sS'HLA-DRB1*08:30'
p1436
g75
sS'HLA-DR14'
p1437
g1238
sS'DRB1_1612'
p1438
g1016
sS'HLA-DRB1*08:31'
p1439
g77
sS'HLA-DRB1*14:13'
p1440
g649
sS'HLA-DRB1*08:32'
p1441
g79
sS'HLA-DRB1*11:61'
p1442
g347
sS'HLA-DRB1*11:60'
p1443
g349
sS'HLA-DRB1*11:63'
p1444
g351
sS'HLA-DRB1*08:33'
p1445
g81
sS'HLA-DRB1*11:65'
p1446
S'ESSFDYFDIDEATYHVVFT'
p1447
sS'HLA-DRB1*11:64'
p1448
g341
sS'HLA-DRB1*11:67'
p1449
g343
sS'HLA-DRB1*11:66'
p1450
g345
sS'HLA-DRB1*11:69'
p1451
g359
sS'HLA-DRB1*08:34'
p1452
g67
sS'DRB3_0104'
p1453
g1355
sS'DRB3_0105'
p1454
g1358
sS'HLA-DRB1*08:35'
p1455
g69
sS'DRB1_1367'
p1456
g1151
sS'DRB1_1366'
p1457
g1161
sS'DRB1_1365'
p1458
g1167
sS'DRB1_1364'
p1459
g1174
sS'DRB1_1363'
p1460
S'ESSFDYFDFDEATYHVGFT'
p1461
sS'HLA-DRB1*08:36'
p1462
g71
sS'DRB1_1361'
p1463
g1140
sS'DRB1_1360'
p1464
S'ESSFDYYDLDRATYHVGFT'
p1465
sS'HLA-DRB5*02:04'
p1466
S'QDYFHGYDFQAATYHAVFT'
p1467
sS'HLA-DRB1*14:43'
p1468
g801
sS'HLA-DRB1*08:37'
p1469
g73
sS'DRB1_1369'
p1470
g1094
sS'DRB1_1368'
p1471
g218
sS'DRB1_1305'
p1472
g85
sS'HLA-DRB1*12:08'
p1473
S'ESGFEHFVIDRATYHAVFT'
p1474
sS'HLA-DRB1*12:09'
p1475
S'ESGLEHFDIDRATYHAVFT'
p1476
sS'HLA-DRB3*01:01'
p1477
g1412
sS'DRB1_1304'
p1478
g97
sS'HLA-DRB1*12:02'
p1479
S'ESGLEHFVFDRATYHAVFT'
p1480
sS'HLA-DRB1*12:03'
p1481
S'ESGLEHFVIDRATYHVVFT'
p1482
sS'HLA-DRB1*12:01'
p1483
g998
sS'HLA-DRB1*12:06'
p1484
S'ESGLEHFVIDRATYHAVFT'
p1485
sS'HLA-DRB1*12:07'
p1486
S'ESGLEHFVIDRATYHAVFT'
p1487
sS'HLA-DRB1*12:04'
p1488
S'ESGLEHFDIDRATYHAVFT'
p1489
sS'HLA-DRB1*12:05'
p1490
S'ESGLEHFVIDRATYHAVFT'
p1491
sS'DRB1_1610'
p1492
g1014
sS'DRB1_1188'
p1493
g861
sS'DRB1_1306'
p1494
g115
sS'HLA-DR4'
p1495
g33
sS'HLA-DRB1*12:18'
p1496
S'ESGLEHFVFDRATYHAVFT'
p1497
sS'DRB1_1468'
p1498
g579
sS'HLA-DRB1*15:32'
p1499
g1341
sS'DRB1_1213'
p1500
S'ESGLEHFVFDRATYHAVFT'
p1501
sS'DRB1_1212'
p1502
S'ESGLEHFVLDRATYHAVFT'
p1503
sS'DRB1_1211'
p1504
S'ESGLEHLVIDRATYHAVFT'
p1505
sS'DRB1_1210'
p1506
S'ESGLEHFVIDRATYHAVFT'
p1507
sS'DRB1_1217'
p1508
g980
sS'DRB1_1216'
p1509
g1003
sS'DRB1_1215'
p1510
S'ESGLEHFVFDRATYHAVFT'
p1511
sS'DRB1_1214'
p1512
S'ESGLEHFVIDRATYHAVFT'
p1513
sS'DRB1_1219'
p1514
g454
sS'DRB1_1218'
p1515
g1497
sS'HLA-DRB4'
p1516
g130
sS'HLA-DRB1*16:04'
p1517
g430
sS'HLA-DRB1*16:05'
p1518
g432
sS'HLA-DRB5*01:02'
p1519
g1135
sS'DRB1_1549'
p1520
g851
sS'HLA-DRB1*16:02'
p1521
g427
sS'HLA-DRB1*15:33'
p1522
S'WPRFDYFDIQAATYHVVFT'
p1523
sS'DRB3_0111'
p1524
g701
sS'DRB5_0204'
p1525
g1467
sS'HLA-DRB1*14:51'
p1526
g1414
sS'HLA-DRB1*12:11'
p1527
g1505
sS'HLA-DRB1*14:99'
p1528
g942
sS'HLA-DRB1*14:64'
p1529
S'ESSFDYFDLRRETYHVVFT'
p1530
sS'HLA-DRB5'
p1531
g1133
sS'HLA-DRB1*14:62'
p1532
g797
sS'HLA-DRB1*12:13'
p1533
g1501
sS'HLA-DRB1*14:20'
p1534
g403
sS'HLA-DRB1*12:12'
p1535
g1503
sS'HLA-DRB5*01:03'
p1536
S'QDYFHGYDFDTATYHVGFT'
p1537
sS'DRB1_1548'
p1538
g853
sS'HLA-DRB1*15:30'
p1539
S'WPRFDYFEIQAATYHVGFT'
p1540
sS'HLA-DRB1*12:15'
p1541
g1511
sS'HLA-DRB1*12:14'
p1542
g1513
sS'HLA-DRB1*03:48'
p1543
g1374
sS'HLA-DRB1*03:49'
p1544
g1376
sS'HLA-DRB1*08:14'
p1545
g1097
sS'HLA-DRB1*08:15'
p1546
g1099
sS'HLA-DRB1*08:12'
p1547
g1101
sS'HLA-DRB1*08:13'
p1548
g1103
sS'HLA-DRB1*08:10'
p1549
g1105
sS'HLA-DRB1*08:11'
p1550
g1107
sS'HLA-DRB1*03:40'
p1551
g1386
sS'HLA-DRB1*03:41'
p1552
g1388
sS'HLA-DRB1*03:42'
p1553
g1382
sS'HLA-DRB1*03:43'
p1554
g1384
sS'HLA-DRB1*03:44'
p1555
g1394
sS'HLA-DRB1*03:45'
p1556
g1396
sS'HLA-DRB1*03:46'
p1557
g1390
sS'HLA-DRB1*03:47'
p1558
g1392
sS'DRB1_0306'
p1559
S'ESSYDYYDLQKRNYHVVFT'
p1560
sS'DRB1_0307'
p1561
S'ESSFDYFDLQKRNYHVVFT'
p1562
sS'DRB1_0304'
p1563
S'ESSYDYFDLQKRNYHVVFT'
p1564
sS'DRB1_0305'
p1565
S'ESSYDYFDLQKRNYHVGFT'
p1566
sS'DRB1_0302'
p1567
g799
sS'DRB1_0303'
p1568
S'ESSFEYYDLQKRNYHVVFT'
p1569
sS'DRB1_0717'
p1570
g1216
sS'DRB1_0301'
p1571
g224
sS'DRB1_0719'
p1572
g1212
sS'DRB1_1136'
p1573
g1127
sS'HLA-DRB1*13:14'
p1574
g1303
sS'HLA-DRB1*13:15'
p1575
g1305
sS'HLA-DRB1*13:12'
p1576
g1307
sS'HLA-DRB1*13:13'
p1577
g1309
sS'DRB1_0308'
p1578
S'ESSYDYFDLQKRNYHVVFT'
p1579
sS'DRB1_1137'
p1580
g1131
sS'HLA-DRB1*04:12'
p1581
g597
sS'HLA-DRB1*04:13'
p1582
g599
sS'HLA-DRB1*04:10'
p1583
g601
sS'HLA-DRB1*04:11'
p1584
g603
sS'HLA-DRB1*04:16'
p1585
g605
sS'HLA-DRB1*04:17'
p1586
g607
sS'HLA-DRB1*04:14'
p1587
g609
sS'HLA-DRB1*04:15'
p1588
g611
sS'DRB1_1547'
p1589
S'WPRFDYFDIQAATYHVGFT'
p1590
sS'DRB1_1546'
p1591
g1125
sS'HLA-DRB1*04:18'
p1592
g585
sS'HLA-DRB1*04:19'
p1593
g587
sS'DRB1_1543'
p1594
g832
sS'DRB1_1542'
p1595
g834
sS'DRB1_1541'
p1596
S'WPRFDYFDIQAATYHVVFT'
p1597
sS'DRB1_1540'
p1598
S'WPRFDYFDIQAATYHVVFT'
p1599
sS'HLA-DRB5*01:01'
p1600
g1133
sS'DRB1_0829'
p1601
g1273
sS'DRB1_0828'
p1602
g1275
sS'DRB1_1535'
p1603
g1361
sS'DRB1_1524'
p1604
S'WPRFDYFDIQAATYHVVFT'
p1605
sS'DRB1_0823'
p1606
g1285
sS'DRB1_0822'
p1607
g1287
sS'DRB1_0821'
p1608
g1289
sS'DRB1_0820'
p1609
g1291
sS'DRB1_0827'
p1610
g1277
sS'DRB1_0826'
p1611
g1279
sS'DRB1_0825'
p1612
g1281
sS'DRB1_0824'
p1613
g1283
sS'DRB1_1149'
p1614
g521
sS'DRB1_1148'
p1615
g523
sS'DRB1_1143'
p1616
g533
sS'DRB1_1142'
p1617
g535
sS'DRB1_1141'
p1618
g537
sS'HLA-DRB1*13:60'
p1619
g1465
sS'DRB1_1147'
p1620
g541
sS'DRB1_1146'
p1621
g543
sS'DRB1_1145'
p1622
g545
sS'DRB1_1144'
p1623
g547
sS'DRB1_1165'
p1624
g1447
sS'DRB1_1533'
p1625
g1523
sS'HLA-DR9'
p1626
S'KDFYHGYVFRRETVHVGFT'
p1627
sS'HLA-DRB3*02:25'
p1628
g278
sS'DRB1_1522'
p1629
S'WPRFDYFDIQAATYHVVFT'
p1630
sS'HLA-DRB3*02:23'
p1631
g1251
sS'HLA-DRB1*13:43'
p1632
g258
sS'DRB1_1415'
p1633
g1417
sS'HLA-DRB1*16:16'
p1634
S'WPRFDYYDLDRATYHVGFT'
p1635
sS'HLA-DRB1*13:42'
p1636
g260
sS'DRB1_1483'
p1637
S'ESSFEYYDLQRATYHVVFT'
p1638
sS'DRB1_1518'
p1639
g551
sS'DRB1_1461'
p1640
g539
sS'HLA-DRB1*13:44'
p1641
g262
sS'HLA-DRB1*09:02'
p1642
S'KDFYHGYDFRRETVHVGFT'
p1643
sS'HLA-DRB1*09:03'
p1644
S'KDFYHGYVFDRETVHVGFT'
p1645
sS'HLA-DRB1*14:46'
p1646
g760
sS'HLA-DRB1*09:01'
p1647
g1627
sS'HLA-DRB1*09:06'
p1648
S'KDFYHGYVFRRETVHVVFT'
p1649
sS'HLA-DRB1*09:07'
p1650
S'QDYYHGYVFRRETVHVGFT'
p1651
sS'HLA-DRB1*09:04'
p1652
S'KDFYHGYVLRRETVHVGFT'
p1653
sS'HLA-DRB1*09:05'
p1654
S'KDFYHGYVFRRETYHVGFT'
p1655
sS'DRB1_1529'
p1656
S'WPRFDYFVIQAATYHVGFT'
p1657
sS'HLA-DRB1*09:08'
p1658
S'KDFYHGYSFRRETVHVGFT'
p1659
sS'HLA-DRB1*09:09'
p1660
S'KDFYHGYVFRRETVHVGFT'
p1661
sS'HLA-DRB1*14:48'
p1662
S'ESSFEYYVLQRATYHVGFT'
p1663
sS'HLA-DRB1*14:49'
p1664
S'ESSFEYYALQRATYHVGFT'
p1665
sS'DRB1_1487'
p1666
g917
sS'DRB1_1514'
p1667
g557
sS'DRB1_1207'
p1668
g1487
sS'HLA-DRB1*13:09'
p1669
g890
sS'HLA-DRB1*13:78'
p1670
S'ESSFDYFDLDEATYHVVFT'
p1671
sS'DRB1_1485'
p1672
g280
sS'DRB1_1530'
p1673
g1540
sS'HLA-DRB1*13:79'
p1674
S'ESSFDYFDIDEATYHVVFT'
p1675
sS'HLA-DRB3*02:24'
p1676
g990
sS'HLA-DRB3*03:03'
p1677
g581
sS'HLA-DRB3*03:01'
p1678
g513
sS'DRB1_1609'
p1679
g302
sS'DRB1_1510'
p1680
g564
sS'DRB1_1479'
p1681
g1144
sS'HLA-DRB1*13:41'
p1682
g256
sS'DRB1_1511'
p1683
g566
sS'DRB1_0430'
p1684
g751
sS'DRB1_0431'
p1685
g753
sS'DRB1_0433'
p1686
g756
sS'DRB1_0434'
p1687
g743
sS'DRB1_0435'
p1688
g745
sS'DRB1_0436'
p1689
g747
sS'DRB1_0437'
p1690
g749
sS'DRB1_0438'
p1691
g737
sS'DRB1_0439'
p1692
g739
sS'HLA-DRB1*14:98'
p1693
g35
sS'HLA-DRB1*13:76'
p1694
S'ESSFDYYDIDEETYHVVFT'
p1695
sS'HLA-DRB5*01:06'
p1696
S'QDYFHDYDIQAATYHAVFT'
p1697
sS'DRB1_1416'
p1698
g972
sS'DRB3_0211'
p1699
g1185
sS'HLA-DRB1*11:18'
p1700
S'ESSFDYFDIDRATYHVVFT'
p1701
sS'HLA-DRB1*11:19'
p1702
S'ESSFDYFDIDRATYHVGFT'
p1703
sS'HLA-DRB1*13:72'
p1704
S'ESSFDYYDIDEATYHVVFT'
p1705
sS'HLA-DRB1*11:10'
p1706
S'ESSFDYFDFDRATYHVGFT'
p1707
sS'HLA-DRB1*11:11'
p1708
S'ESSFDYFDFDEATYHVGFT'
p1709
sS'HLA-DRB1*11:12'
p1710
S'ESSFDYFDFDRATYHVGFT'
p1711
sS'HLA-DRB1*11:13'
p1712
S'ESSFDYFDLRRATYHVVFT'
p1713
sS'HLA-DRB1*11:14'
p1714
S'ESSFDYFDIDEATYHVGFT'
p1715
sS'HLA-DRB1*11:15'
p1716
S'ESSFDYFDFDRATYHVGFT'
p1717
sS'HLA-DRB1*11:16'
p1718
S'ESSFDYFDIDEATYHVVFT'
p1719
sS'HLA-DRB1*11:17'
p1720
S'ESSFDYYDLRRETYHVVFT'
p1721
sS'DRB1_1437'
p1722
S'ESSFDYYDIQAATYHVVFT'
p1723
sS'HLA-DRB1*14:33'
p1724
S'ESSFDYFDLQRETYHVVFT'
p1725
sS'DRB1_1435'
p1726
g519
sS'DRB1_1434'
p1727
g531
sS'DRB1_1433'
p1728
g1725
sS'DRB1_1432'
p1729
g1142
sS'DRB1_1431'
p1730
g559
sS'DRB1_1430'
p1731
g569
sS'HLA-DRB1*13:30'
p1732
g328
sS'HLA-DR6'
p1733
g61
sS'DRB1_1439'
p1734
g967
sS'HLA-DRB1*14:28'
p1735
S'ESGFDYYALRRETYHAVFT'
p1736
sS'HLA-DRB1*01:24'
p1737
S'WLFLECYDIQRATYHVGFT'
p1738
sS'HLA-DRB1*01:25'
p1739
S'WLFLECYDLQRATYHVGFT'
p1740
sS'HLA-DRB1*01:26'
p1741
S'WLFLECYDLQRATYHAVFT'
p1742
sS'HLA-DRB1*01:27'
p1743
S'WLFLECYDLQRATYHVGFT'
p1744
sS'HLA-DRB1*01:20'
p1745
S'WLFLECYDLQRATYHVVFT'
p1746
sS'HLA-DRB1*01:21'
p1747
S'WLFLECYDLQRATVHVGFT'
p1748
sS'HLA-DRB1*01:22'
p1749
S'WLFLECYDLQRATYHVGFT'
p1750
sS'HLA-DRB1*01:23'
p1751
S'WLFLECYDLDRATYHAVFT'
p1752
sS'HLA-DRB1*15:38'
p1753
g1351
sS'DRB1_1616'
p1754
g1635
sS'HLA-DRB1*01:28'
p1755
S'WLFLECYDLQRATYHVGFT'
p1756
sS'HLA-DRB1*01:29'
p1757
S'WLFLECYDLRRATYHVGFT'
p1758
sS'DRB3_0218'
p1759
S'ELSFEHYDLQKQNYHVGFT'
p1760
sS'DRB3_0219'
p1761
S'ELSFEHYDLQKRNYHVGFT'
p1762
sS'HLA-DRB1*13:85'
p1763
S'ESSFEYYDIDKATYHVGFT'
p1764
sS'HLA-DRB1*03:08'
p1765
g1579
sS'HLA-DRB1*13:31'
p1766
g330
sS'HLA-DRB1*13:84'
p1767
S'ESSFDYYDIDEATYHVVFT'
p1768
sS'HLA-DRB1*03:04'
p1769
g1564
sS'HLA-DRB1*03:05'
p1770
g1566
sS'HLA-DRB1*03:06'
p1771
g1560
sS'HLA-DRB1*03:07'
p1772
g1562
sS'HLA-DRB1*03:01'
p1773
g224
sS'HLA-DRB1*03:02'
p1774
g799
sS'HLA-DRB1*03:03'
p1775
g1569
sS'DRB1_1323'
p1776
g1319
sS'DRB1_1322'
p1777
g1321
sS'DRB1_1321'
p1778
g1005
sS'DRB1_1320'
p1779
g1011
sS'DRB1_1327'
p1780
g1313
sS'DRB1_1326'
p1781
g1315
sS'HLA-DRB1*15:39'
p1782
g1353
sS'DRB1_1324'
p1783
g992
sS'HLA-DRB3*02:20'
p1784
g274
sS'DRB1_1329'
p1785
g1038
sS'DRB4_0107'
p1786
g879
sS'DRB4_0106'
p1787
g160
sS'HLA-DRB1*13:80'
p1788
S'ESSFDYFDIDEATYHVVFT'
p1789
sS'DRB1_1110'
p1790
g1707
sS'DRB1_1111'
p1791
g1709
sS'DRB1_1112'
p1792
g1711
sS'DRB1_1113'
p1793
g1713
sS'DRB1_1114'
p1794
g1715
sS'DRB1_1115'
p1795
g1717
sS'DRB1_1116'
p1796
g1719
sS'DRB1_1117'
p1797
g1721
sS'DRB1_1118'
p1798
g1701
sS'DRB1_1119'
p1799
g1703
sS'HLA-DRB1*13:58'
p1800
g985
sS'HLA-DRB1*13:59'
p1801
g987
sS'DRB1_1507'
p1802
g1176
sS'DRB1_1506'
p1803
g1178
sS'DRB1_1505'
p1804
g1180
sS'DRB1_1504'
p1805
g1182
sS'DRB3_0210'
p1806
S'ELSFEHYDLQKQNYHVGFT'
p1807
sS'HLA-DRB1*13:33'
p1808
g334
sS'DRB1_0908'
p1809
g1659
sS'DRB1_0909'
p1810
g1661
sS'DRB1_0904'
p1811
g1653
sS'DRB1_0905'
p1812
g1655
sS'DRB1_0906'
p1813
g1649
sS'DRB1_0907'
p1814
g1651
sS'DRB1_0901'
p1815
g1627
sS'DRB1_0902'
p1816
g1643
sS'DRB1_0903'
p1817
g1645
sS'DRB1_1187'
p1818
g863
sS'DRB1_1186'
p1819
S'ESSFDYFDIDEATYHVDFT'
p1820
sS'DRB1_1185'
p1821
g867
sS'DRB1_1184'
p1822
g869
sS'DRB1_1183'
p1823
g871
sS'DRB1_1182'
p1824
g873
sS'DRB1_0128'
p1825
g1756
sS'DRB1_0129'
p1826
g1758
sS'DRB1_0126'
p1827
g1742
sS'DRB1_0127'
p1828
g1744
sS'DRB1_0124'
p1829
g1738
sS'DRB1_0125'
p1830
g1740
sS'DRB1_0122'
p1831
g1750
sS'DRB1_0123'
p1832
g1752
sS'DRB1_0120'
p1833
g1746
sS'DRB1_0121'
p1834
g1748
sS'HLA-DRB1*13:34'
p1835
g320
sS'HLA-DRB1*15:20'
p1836
g768
sS'HLA-DRB1*13:47'
p1837
g264
sS'HLA-DRB1*15:22'
p1838
g1630
sS'HLA-DRB1*15:25'
p1839
g758
sS'HLA-DRB1*15:24'
p1840
g1605
sS'HLA-DRB1*15:27'
p1841
g1346
sS'DRB1_1436'
p1842
g549
sS'HLA-DRB1*15:29'
p1843
g1657
sS'HLA-DRB1*15:28'
p1844
g483
sS'HLA-DRB1*14:40'
p1845
S'ESSFEYYDLDRLTYHVGFT'
p1846
sS'DRB1_1449'
p1847
g1665
sS'HLA-DRB1*04:49'
p1848
g210
sS'HLA-DRB1*04:48'
p1849
g212
sS'DRB3_0112'
p1850
g695
sS'HLA-DRB1*04:45'
p1851
g192
sS'HLA-DRB1*04:44'
p1852
g194
sS'HLA-DRB1*04:47'
p1853
g196
sS'HLA-DRB1*04:46'
p1854
g198
sS'HLA-DRB1*04:41'
p1855
g200
sS'HLA-DRB1*04:40'
p1856
g202
sS'HLA-DRB1*04:43'
p1857
g204
sS'HLA-DRB1*04:42'
p1858
g206
sS'HLA-DRB1*13:46'
p1859
g266
sS'DRB1_1428'
p1860
g1736
sS'DRB3_0214'
p1861
S'ELSFEHYDLQKQNYHVAFT'
p1862
sS'HLA-DRB1*15:41'
p1863
g1597
sS'HLA-DRB1*14:69'
p1864
g727
sS'HLA-DRB1*14:01'
p1865
g1238
sS'HLA-DRB1*15:40'
p1866
g1599
sS'HLA-DRB1*14:02'
p1867
g1234
sS'DRB1_1515'
p1868
S'WPRFDYFDFQAATYHVGFT'
p1869
sS'DRB5_0105'
p1870
g367
sS'DRB1_1615'
p1871
g1008
sS'HLA-DRB1*11:62'
p1872
g353
sS'DRB5_0106'
p1873
g1697
sS'DRB1_1180'
p1874
S'ESSYDYFDFDRATYHVGFT'
p1875
sS'HLA-DRB1*14:04'
p1876
g1242
sS'HLA-DRB1*13:36'
p1877
g324
sS'HLA-DR8'
p1878
g467
sS'HLA-DRB1*14:05'
p1879
g1244
sS'HLA-DRB3*02:16'
p1880
S'ELSFEHYALQKQNYHVGFT'
p1881
sS'DRB1_1474'
p1882
g1157
sS'DRB1_0478'
p1883
g423
sS'DRB1_0479'
p1884
g425
sS'DRB1_1448'
p1885
g1663
sS'DRB1_0474'
p1886
g446
sS'DRB1_0475'
p1887
g448
sS'DRB1_0476'
p1888
g450
sS'DRB1_0477'
p1889
g452
sS'DRB1_0470'
p1890
g438
sS'DRB1_0471'
p1891
g440
sS'DRB1_0472'
p1892
g442
sS'DRB1_0473'
p1893
g444
sS'DRB3_0101'
p1894
g1412
sS'HLA-DRB1*14:08'
p1895
g1248
sS'HLA-DRB3*02:14'
p1896
g1862
sS'HLA-DRB3*02:15'
p1897
S'ELSFEHYDLQKQTYHVGFT'
p1898
sS'HLA-DRB3*02:12'
p1899
S'QLSFEHYDLQKQNYHVGFT'
p1900
sS'HLA-DRB3*02:13'
p1901
S'ELSLEHYDLQKQNYHVGFT'
p1902
sS'HLA-DRB3*02:10'
p1903
g1807
sS'HLA-DRB1*11:68'
p1904
g361
sS'HLA-DRB1*13:37'
p1905
g326
sS'DRB1_1438'
p1906
g969
sS'DRB1_1422'
p1907
g616
sS'HLA-DRB3*02:18'
p1908
g1760
sS'HLA-DRB3*02:19'
p1909
g1762
sS'DRB3_0216'
p1910
g1881
sS'DRB1_1423'
p1911
g1232
sS'HLA-DRB1*11:58'
p1912
g91
sS'HLA-DRB1*11:59'
p1913
g93
sS'HLA-DRB1*14:19'
p1914
g658
sS'HLA-DRB1*14:18'
p1915
g660
sS'HLA-DRB1*11:54'
p1916
g99
sS'HLA-DRB1*11:55'
p1917
g101
sS'HLA-DRB1*11:56'
p1918
g103
sS'HLA-DRB1*11:57'
p1919
g456
sS'HLA-DRB1*11:50'
p1920
g107
sS'HLA-DRB1*11:51'
p1921
g109
sS'HLA-DRB1*11:52'
p1922
g111
sS'HLA-DRB1*11:53'
p1923
g113
sS'HLA-DRB5*01:14'
p1924
g888
sS'DRB3_0215'
p1925
g1898
sS'HLA-DRB5*01:11'
p1926
g529
sS'HLA-DRB1*15:13'
p1927
g365
sS'HLA-DRB5*01:13'
p1928
g525
sS'DRB1_1464'
p1929
g1530
sS'DRB3_0212'
p1930
g1900
sS'HLA-DR10'
p1931
g619
sS'DRB1_1427'
p1932
g1214
sS'DRB3_0213'
p1933
g1902
sS'HLA-DRB1*13:63'
p1934
g1461
sS'HLA-DRB1*16:01'
p1935
g1169
sS'HLA-DRB1*14:37'
p1936
g1723
sS'HLA-DRB1*14:14'
p1937
g1205
sS'DRB1_0409'
p1938
g49
sS'DRB1_0408'
p1939
g51
sS'HLA-DRB1*11:86'
p1940
g1820
sS'DRB1_0401'
p1941
g33
sS'HLA-DRB1*12:10'
p1942
g1507
sS'DRB1_0403'
p1943
g37
sS'DRB1_0402'
p1944
g39
sS'DRB1_0405'
p1945
g41
sS'DRB1_0404'
p1946
g43
sS'DRB1_0407'
p1947
g45
sS'DRB1_0406'
p1948
g47
sS'DRB1_1378'
p1949
g1671
sS'HLA-DRB1*13:62'
p1950
g836
sS'HLA-DRB1*14:83'
p1951
g1638
sS'DRB1_1379'
p1952
g1675
sS'HLA-DRB1*08:07'
p1953
g463
sS'DRB1_1204'
p1954
g1489
sS'DRB1_1205'
p1955
g1491
sS'DRB1_1206'
p1956
g1485
sS'HLA-DRB1*08:06'
p1957
g465
sS'DRB1_1201'
p1958
g998
sS'DRB1_1202'
p1959
g1480
sS'DRB1_1203'
p1960
g1482
sS'HLA-DRB1*08:01'
p1961
g467
sS'HLA-DRB1*11:80'
p1962
g1875
sS'DRB1_1208'
p1963
g1474
sS'DRB1_1209'
p1964
g1476
sS'DRB1_1476'
p1965
g222
sS'HLA-DRB*010:8N'
p1966
g1072
sS'HLA-DRB1*08:03'
p1967
g471
sS'DRB1_1440'
p1968
g1846
sS'HLA-DRB1*08:02'
p1969
g473
sS'DRB5_0103'
p1970
g1537
sS'DRB1_1385'
p1971
g1764
sS'DRB1_1384'
p1972
g1768
sS'DRB1_1387'
p1973
g805
sS'DRB1_1386'
p1974
g807
sS'DRB1_1381'
p1975
g809
sS'DRB1_1380'
p1976
g1789
sS'DRB1_1383'
p1977
g813
sS'DRB1_1382'
p1978
g815
sS'HLA-DRB1*15:47'
p1979
g1590
sS'DRB1_1389'
p1980
g1000
sS'DRB1_1388'
p1981
g824
sS'HLA-DRB1*15:15'
p1982
g1869
sS'DRB5_0203'
p1983
g228
sS'DRB1_1502'
p1984
g1257
sS'DRB1_1478'
p1985
g1146
sS'HLA-DRB3*01:09'
p1986
g613
sS'DRB1_1601'
p1987
g1169
sS'DRB1_1374'
p1988
g1109
sS'DRB1_1375'
p1989
g1111
sS'HLA-DRB1*08:05'
p1990
g459
sS'HLA-DRB1*08:04'
p1991
g461
sS'HLA-DRB1*03:55'
p1992
g847
sS'HLA-DRB1*03:54'
p1993
g849
sS'HLA-DRB1*03:53'
p1994
g843
sS'HLA-DRB1*03:52'
p1995
g845
sS'HLA-DRB1*03:51'
p1996
g839
sS'HLA-DRB1*03:50'
p1997
g841
sS'DRB1_1370'
p1998
g1116
sS'DRB1_1371'
p1999
g1118
sS'DRB1_1372'
p2000
g1705
sS'DRB1_1373'
p2001
g1363
sS'HLA-DRB1*08:09'
p2002
g479
sS'HLA-DRB1*08:08'
p2003
g481
sS'DRB1_1376'
p2004
g1695
sS'DRB1_1377'
p2005
g1114
s.